Component: ARM Compiler 5.06 update 7 (build 960) Tool: armlink [4d3601]

==============================================================================

Section Cross References

    startup_stm32f103xe.o(STACK) refers (Special) to heapauxi.o(.text) for __use_two_region_memory
    startup_stm32f103xe.o(HEAP) refers (Special) to heapauxi.o(.text) for __use_two_region_memory
    startup_stm32f103xe.o(RESET) refers (Special) to heapauxi.o(.text) for __use_two_region_memory
    startup_stm32f103xe.o(RESET) refers to startup_stm32f103xe.o(STACK) for __initial_sp
    startup_stm32f103xe.o(RESET) refers to startup_stm32f103xe.o(.text) for Reset_Handler
    startup_stm32f103xe.o(RESET) refers to stm32f1xx_it.o(i.NMI_Handler) for NMI_Handler
    startup_stm32f103xe.o(RESET) refers to stm32f1xx_it.o(i.HardFault_Handler) for HardFault_Handler
    startup_stm32f103xe.o(RESET) refers to stm32f1xx_it.o(i.MemManage_Handler) for MemManage_Handler
    startup_stm32f103xe.o(RESET) refers to stm32f1xx_it.o(i.BusFault_Handler) for BusFault_Handler
    startup_stm32f103xe.o(RESET) refers to stm32f1xx_it.o(i.UsageFault_Handler) for UsageFault_Handler
    startup_stm32f103xe.o(RESET) refers to stm32f1xx_it.o(i.SVC_Handler) for SVC_Handler
    startup_stm32f103xe.o(RESET) refers to stm32f1xx_it.o(i.DebugMon_Handler) for DebugMon_Handler
    startup_stm32f103xe.o(RESET) refers to stm32f1xx_it.o(i.PendSV_Handler) for PendSV_Handler
    startup_stm32f103xe.o(RESET) refers to stm32f1xx_it.o(i.SysTick_Handler) for SysTick_Handler
    startup_stm32f103xe.o(.text) refers (Special) to heapauxi.o(.text) for __use_two_region_memory
    startup_stm32f103xe.o(.text) refers to system_stm32f1xx_1.o(i.SystemInit) for SystemInit
    startup_stm32f103xe.o(.text) refers to __main.o(!!!main) for __main
    startup_stm32f103xe.o(.text) refers to startup_stm32f103xe.o(HEAP) for Heap_Mem
    startup_stm32f103xe.o(.text) refers to startup_stm32f103xe.o(STACK) for Stack_Mem
    ccgraphic_arc.o(i.CCGraphic_draw_arc) refers to ccgraphic_arc.o(i.__pvt_is_in_angle) for __pvt_is_in_angle
    ccgraphic_arc.o(i.CCGraphic_draw_arc) refers to ccgraphic_point.o(i.CCGraphic_draw_point) for CCGraphic_draw_point
    ccgraphic_arc.o(i.CCGraphic_drawfilled_arc) refers to ccgraphic_arc.o(i.__pvt_is_in_angle) for __pvt_is_in_angle
    ccgraphic_arc.o(i.CCGraphic_drawfilled_arc) refers to ccgraphic_point.o(i.CCGraphic_draw_point) for CCGraphic_draw_point
    ccgraphic_arc.o(i.__pvt_is_in_angle) refers to dflt_clz.o(x$fpl$dflt) for __aeabi_i2d
    ccgraphic_arc.o(i.__pvt_is_in_angle) refers to atan2.o(i.atan2) for atan2
    ccgraphic_arc.o(i.__pvt_is_in_angle) refers to ddiv.o(x$fpl$ddiv) for __aeabi_ddiv
    ccgraphic_arc.o(i.__pvt_is_in_angle) refers to dmul.o(x$fpl$dmul) for __aeabi_dmul
    ccgraphic_arc.o(i.__pvt_is_in_angle) refers to dfix.o(x$fpl$dfix) for __aeabi_d2iz
    ccgraphic_circle.o(i.CCGraphic_draw_circle) refers to ccgraphic_point.o(i.CCGraphic_draw_point) for CCGraphic_draw_point
    ccgraphic_circle.o(i.CCGraphic_drawfilled_circle) refers to ccgraphic_point.o(i.CCGraphic_draw_point) for CCGraphic_draw_point
    ccgraphic_device_adapter.o(i.__device_delay) refers to stm32f1xx_hal.o(i.HAL_Delay) for HAL_Delay
    ccgraphic_device_adapter.o(i.__device_delayclock_enabled) refers to stm32f1xx_hal_rcc.o(i.HAL_RCC_GetHCLKFreq) for HAL_RCC_GetHCLKFreq
    ccgraphic_device_adapter.o(i.__device_delayclock_enabled) refers to ccgraphic_device_adapter.o(.data) for .data
    ccgraphic_device_adapter.o(i.__device_usdelay) refers to ccgraphic_device_adapter.o(i.__device_delayclock_enabled) for __device_delayclock_enabled
    ccgraphic_device_adapter.o(i.__device_usdelay) refers to ccgraphic_device_adapter.o(.data) for .data
    ccgraphic_device_adapter.o(i.__register_paintdevice) refers to ccgraphic_device_oled_adapter.o(i.init_device_oled) for init_device_oled
    ccgraphic_device_adapter.o(i.__register_paintdevice) refers to ccgraphic_device_oled_adapter.o(i.clear_device_oled) for clear_device_oled
    ccgraphic_device_adapter.o(i.__register_paintdevice) refers to ccgraphic_device_oled_adapter.o(i.setpixel_device_oled) for setpixel_device_oled
    ccgraphic_device_adapter.o(i.__register_paintdevice) refers to ccgraphic_device_oled_adapter.o(i.update_device_oled) for update_device_oled
    ccgraphic_device_adapter.o(i.__register_paintdevice) refers to ccgraphic_device_oled_adapter.o(i.clear_area_device_oled) for clear_area_device_oled
    ccgraphic_device_adapter.o(i.__register_paintdevice) refers to ccgraphic_device_oled_adapter.o(i.reverse_device_oled) for reverse_device_oled
    ccgraphic_device_adapter.o(i.__register_paintdevice) refers to ccgraphic_device_oled_adapter.o(i.reversearea_device_oled) for reversearea_device_oled
    ccgraphic_device_adapter.o(i.__register_paintdevice) refers to ccgraphic_device_oled_adapter.o(i.update_area_device_oled) for update_area_device_oled
    ccgraphic_device_adapter.o(i.__register_paintdevice) refers to ccgraphic_device_oled_adapter.o(i.draw_area_device_oled) for draw_area_device_oled
    ccgraphic_device_adapter.o(i.__register_paintdevice) refers to ccgraphic_device_oled_adapter.o(i.property_fetcher_device_oled) for property_fetcher_device_oled
    ccgraphic_device_adapter.o(i.__register_paintdevice) refers to ccgraphic_device_oled_adapter.o(i.open_device_oled) for open_device_oled
    ccgraphic_device_adapter.o(i.__register_paintdevice) refers to ccgraphic_device_oled_adapter.o(i.close_device_oled) for close_device_oled
    ccgraphic_device_adapter.o(i.__register_paintdevice) refers to ccgraphic_device_oled_adapter.o(i.set_property_device_oled) for set_property_device_oled
    ccgraphic_device_oled_adapter.o(i.clear_area_device_oled) refers to oled_base_driver_ssd1309.o(i.oled_helper_clear_area) for oled_helper_clear_area
    ccgraphic_device_oled_adapter.o(i.clear_device_oled) refers to oled_base_driver_ssd1309.o(i.oled_helper_clear_frame) for oled_helper_clear_frame
    ccgraphic_device_oled_adapter.o(i.close_device_oled) refers to oled_base_driver_ssd1309.o(i.close_oled) for close_oled
    ccgraphic_device_oled_adapter.o(i.draw_area_device_oled) refers to oled_base_driver_ssd1309.o(i.oled_helper_draw_area) for oled_helper_draw_area
    ccgraphic_device_oled_adapter.o(i.init_device_oled) refers to oled_base_driver_ssd1309.o(i.oled_init_softspi_handle) for oled_init_softspi_handle
    ccgraphic_device_oled_adapter.o(i.open_device_oled) refers to oled_base_driver_ssd1309.o(i.open_oled) for open_oled
    ccgraphic_device_oled_adapter.o(i.property_fetcher_device_oled) refers to oled_base_driver_ssd1309.o(i.oled_support_rgb) for oled_support_rgb
    ccgraphic_device_oled_adapter.o(i.property_fetcher_device_oled) refers to oled_base_driver_ssd1309.o(i.oled_height) for oled_height
    ccgraphic_device_oled_adapter.o(i.property_fetcher_device_oled) refers to oled_base_driver_ssd1309.o(i.oled_width) for oled_width
    ccgraphic_device_oled_adapter.o(i.reverse_device_oled) refers to oled_base_driver_ssd1309.o(i.oled_helper_reverse) for oled_helper_reverse
    ccgraphic_device_oled_adapter.o(i.reversearea_device_oled) refers to oled_base_driver_ssd1309.o(i.oled_helper_reversearea) for oled_helper_reversearea
    ccgraphic_device_oled_adapter.o(i.set_property_device_oled) refers to oled_base_driver_ssd1309.o(i.set_property_oled) for set_property_oled
    ccgraphic_device_oled_adapter.o(i.setpixel_device_oled) refers to oled_base_driver_ssd1309.o(i.oled_helper_setpixel) for oled_helper_setpixel
    ccgraphic_device_oled_adapter.o(i.update_area_device_oled) refers to oled_base_driver_ssd1309.o(i.oled_helper_update_area) for oled_helper_update_area
    ccgraphic_device_oled_adapter.o(i.update_device_oled) refers to oled_base_driver_ssd1309.o(i.oled_helper_update) for oled_helper_update
    ccgraphic_ellipse.o(i.CCGraphic_draw_ellipse) refers to dflt_clz.o(x$fpl$dflt) for __aeabi_i2d
    ccgraphic_ellipse.o(i.CCGraphic_draw_ellipse) refers to daddsub_clz.o(x$fpl$dadd) for __aeabi_dadd
    ccgraphic_ellipse.o(i.CCGraphic_draw_ellipse) refers to dmul.o(x$fpl$dmul) for __aeabi_dmul
    ccgraphic_ellipse.o(i.CCGraphic_draw_ellipse) refers to d2f.o(x$fpl$d2f) for __aeabi_d2f
    ccgraphic_ellipse.o(i.CCGraphic_draw_ellipse) refers to ccgraphic_point.o(i.CCGraphic_draw_point) for CCGraphic_draw_point
    ccgraphic_ellipse.o(i.CCGraphic_draw_ellipse) refers to fflt_clz.o(x$fpl$fflt) for __aeabi_i2f
    ccgraphic_ellipse.o(i.CCGraphic_draw_ellipse) refers to faddsub_clz.o(x$fpl$fadd) for __aeabi_fadd
    ccgraphic_ellipse.o(i.CCGraphic_draw_ellipse) refers to daddsub_clz.o(x$fpl$dsub) for __aeabi_dsub
    ccgraphic_ellipse.o(i.CCGraphic_draw_ellipse) refers to dleqf.o(x$fpl$dleqf) for __aeabi_cdcmple
    ccgraphic_ellipse.o(i.CCGraphic_drawfilled_ellipse) refers to dflt_clz.o(x$fpl$dflt) for __aeabi_i2d
    ccgraphic_ellipse.o(i.CCGraphic_drawfilled_ellipse) refers to daddsub_clz.o(x$fpl$dadd) for __aeabi_dadd
    ccgraphic_ellipse.o(i.CCGraphic_drawfilled_ellipse) refers to dmul.o(x$fpl$dmul) for __aeabi_dmul
    ccgraphic_ellipse.o(i.CCGraphic_drawfilled_ellipse) refers to d2f.o(x$fpl$d2f) for __aeabi_d2f
    ccgraphic_ellipse.o(i.CCGraphic_drawfilled_ellipse) refers to ccgraphic_point.o(i.CCGraphic_draw_point) for CCGraphic_draw_point
    ccgraphic_ellipse.o(i.CCGraphic_drawfilled_ellipse) refers to fflt_clz.o(x$fpl$fflt) for __aeabi_i2f
    ccgraphic_ellipse.o(i.CCGraphic_drawfilled_ellipse) refers to faddsub_clz.o(x$fpl$fadd) for __aeabi_fadd
    ccgraphic_ellipse.o(i.CCGraphic_drawfilled_ellipse) refers to daddsub_clz.o(x$fpl$dsub) for __aeabi_dsub
    ccgraphic_ellipse.o(i.CCGraphic_drawfilled_ellipse) refers to dleqf.o(x$fpl$dleqf) for __aeabi_cdcmple
    ccgraphic_frame.o(i.CCGraphic_createDeviceFrame) refers to ccgraphicwidget_base.o(i.CCGraphicWidget_MaxAcceptable_Size) for CCGraphicWidget_MaxAcceptable_Size
    ccgraphic_frame.o(i.CCGraphic_createDeviceFrame) refers to ccgraphic_frame.o(i.__pvt_update) for __pvt_update
    ccgraphic_frame.o(i.CCGraphic_createDeviceFrame) refers to ccgraphic_frame.o(i.__pvt_show) for __pvt_show
    ccgraphic_frame.o(i.CCGraphic_createDeviceFrame) refers to ccgraphic_frame.o(i.__pvt_hide) for __pvt_hide
    ccgraphic_frame.o(i.__pvt_hide) refers to ccgraphic_frame.o(i.__pvt_update) for __pvt_update
    ccgraphic_frame.o(i.__pvt_show) refers to ccgraphic_rectangle.o(i.CCGraphic_draw_rectangle) for CCGraphic_draw_rectangle
    ccgraphic_frame.o(i.__pvt_show) refers to ccgraphic_frame.o(i.__pvt_update) for __pvt_update
    ccgraphic_line.o(i.CCGraphic_draw_line) refers to ccgraphic_utils.o(i.max_uint16) for max_uint16
    ccgraphic_line.o(i.CCGraphic_draw_line) refers to ccgraphic_utils.o(i.min_uint16) for min_uint16
    ccgraphic_line.o(i.CCGraphic_draw_line) refers to ccgraphic_point.o(i.CCGraphic_draw_point) for CCGraphic_draw_point
    ccgraphic_line.o(i.CCGraphic_draw_line) refers to ccgraphic_line.o(i.__pvt_BresenhamMethod_line) for __pvt_BresenhamMethod_line
    ccgraphic_line.o(i.__pvt_BresenhamMethod_line) refers to ccgraphic_utils.o(i.swap_int16) for swap_int16
    ccgraphic_line.o(i.__pvt_BresenhamMethod_line) refers to ccgraphic_point.o(i.CCGraphic_draw_point) for CCGraphic_draw_point
    ccgraphic_menu.o(i.CCGraphic_init_Menu) refers to ccgraphic_textconfig.o(i.__fetch_font_size) for __fetch_font_size
    ccgraphic_menu.o(i.CCGraphic_init_Menu) refers to ccgraphic_menu.o(i.__pvt_hide_CCGraphic_Menu) for __pvt_hide_CCGraphic_Menu
    ccgraphic_menu.o(i.CCGraphic_init_Menu) refers to ccgraphic_menu.o(i.__pvt_show_CCGraphic_Menu) for __pvt_show_CCGraphic_Menu
    ccgraphic_menu.o(i.CCGraphic_init_Menu) refers to ccgraphic_menu.o(i.__pvt_update) for __pvt_update
    ccgraphic_menu.o(i.CCGraphic_init_Menu) refers to ccgraphic_menu.o(i.__pvt_switchIndex) for __pvt_switchIndex
    ccgraphic_menu.o(i.CCGraphic_init_Menu) refers to ccgraphic_menu.o(i.__pvt_setAnimationShowState_wrapper) for __pvt_setAnimationShowState_wrapper
    ccgraphic_menu.o(i.CCGraphic_init_Menu) refers to ccgraphic_menu.o(i.__pvt_setIcon) for __pvt_setIcon
    ccgraphic_menu.o(i.CCGraphic_init_Menu) refers to ccgraphic_menu.o(i.__pvt_hideIcon) for __pvt_hideIcon
    ccgraphic_menu.o(i.CCGraphic_init_Menu) refers to ccgraphic_menu.o(i.__pvt_showIcon) for __pvt_showIcon
    ccgraphic_menu.o(i.CCGraphic_init_Menu) refers to ccgraphic_menu.o(i.__pvt_enterSub) for __pvt_enterSub
    ccgraphic_menu.o(i.CCGraphic_init_Menu) refers to ccgraphic_menu.o(i.__pvt_backParent) for __pvt_backParent
    ccgraphic_menu.o(i.CCGraphic_init_Menu) refers to ccgraphic_menu.o(i.__pvt_doByStep) for __pvt_doByStep
    ccgraphic_menu.o(i.__pvt_do_stepped_animate) refers to ccgraphic_menu.o(i.__pvt_doByStep) for __pvt_doByStep
    ccgraphic_menu.o(i.__pvt_hideIcon) refers to ccgraphic_menu.o(i.__pvt_providePoint) for __pvt_providePoint
    ccgraphic_menu.o(i.__pvt_hideIcon) refers to ccgraphic_menu.o(i.__pvt_provideSize) for __pvt_provideSize
    ccgraphic_menu.o(i.__pvt_hideIcon) refers to ccgraphic_menu.o(i.__pvt_setAnimationShowState) for __pvt_setAnimationShowState
    ccgraphic_menu.o(i.__pvt_hideIcon) refers to ccgraphic_menu.o(i.__pvt_show_textEditOnly) for __pvt_show_textEditOnly
    ccgraphic_menu.o(i.__pvt_hide_CCGraphic_Menu) refers to ccgraphic_menu.o(i.__pvt_hideIcon) for __pvt_hideIcon
    ccgraphic_menu.o(i.__pvt_hide_CCGraphic_Menu) refers to ccgraphic_menu.o(i.__pvt_setAnimationShowState) for __pvt_setAnimationShowState
    ccgraphic_menu.o(i.__pvt_setAnimationShowState_wrapper) refers to ccgraphic_menu.o(i.__pvt_setAnimationShowState) for __pvt_setAnimationShowState
    ccgraphic_menu.o(i.__pvt_setIcon) refers to ccgraphic_menu.o(i.__pvt_showIcon) for __pvt_showIcon
    ccgraphic_menu.o(i.__pvt_showIcon) refers to ccgraphic_menu.o(i.__pvt_providePoint) for __pvt_providePoint
    ccgraphic_menu.o(i.__pvt_showIcon) refers to ccgraphic_menu.o(i.__pvt_provideSize) for __pvt_provideSize
    ccgraphic_menu.o(i.__pvt_showIcon) refers to ccgraphic_menu.o(i.__pvt_setAnimationShowState) for __pvt_setAnimationShowState
    ccgraphic_menu.o(i.__pvt_showIcon) refers to ccgraphic_image.o(i.CCGraphicWidget_draw_image) for CCGraphicWidget_draw_image
    ccgraphic_menu.o(i.__pvt_showIcon) refers to ccgraphic_menu.o(i.__pvt_show_textEditOnly) for __pvt_show_textEditOnly
    ccgraphic_menu.o(i.__pvt_show_CCGraphic_Menu) refers to ccgraphic_menu.o(i.__pvt_show_textEditOnly) for __pvt_show_textEditOnly
    ccgraphic_menu.o(i.__pvt_show_textEditOnly) refers to ccgraphic_menu.o(i.__pvt_setAnimationShowState) for __pvt_setAnimationShowState
    ccgraphic_menu.o(i.__pvt_switchIndex) refers to ccgraphic_menu.o(i.__pvt_do_stepped_animate) for __pvt_do_stepped_animate
    ccgraphic_rectangle.o(i.CCGraphic_draw_rectangle) refers to ccgraphic_line.o(i.CCGraphic_init_line) for CCGraphic_init_line
    ccgraphic_rectangle.o(i.CCGraphic_draw_rectangle) refers to ccgraphic_line.o(i.CCGraphic_draw_line) for CCGraphic_draw_line
    ccgraphic_rectangle.o(i.CCGraphic_drawfilled_rectangle) refers to ccgraphic_point.o(i.CCGraphic_draw_point) for CCGraphic_draw_point
    ccgraphic_textconfig.o(i.__select_from_ascii_font_size) refers to ascii6x8.source.o(.constdata) for ascii6x8_sources
    ccgraphic_textconfig.o(i.__select_from_ascii_font_size) refers to ascii8x16.source.o(.constdata) for ascii8x16_sources
    ccgraphic_textedit.o(i.CCGraphic_init_CCGraphicTextEdit) refers to ccgraphic_textedit.o(i.__pvt_append_text) for __pvt_append_text
    ccgraphic_textedit.o(i.CCGraphic_init_CCGraphicTextEdit) refers to ccgraphic_textedit.o(i.__pvt_clear_text) for __pvt_clear_text
    ccgraphic_textedit.o(i.CCGraphic_init_CCGraphicTextEdit) refers to ccgraphic_textedit.o(i.__pvt_newLine_text) for __pvt_newLine_text
    ccgraphic_textedit.o(i.CCGraphic_init_CCGraphicTextEdit) refers to ccgraphic_textedit.o(i.__pvt_setText) for __pvt_setText
    ccgraphic_textedit.o(i.CCGraphic_init_CCGraphicTextEdit) refers to ccgraphic_textedit.o(i.__pvt_relocate) for __pvt_relocate
    ccgraphic_textedit.o(i.CCGraphic_init_CCGraphicTextEdit) refers to ccgraphic_textedit.o(i.__pvt_hide) for __pvt_hide
    ccgraphic_textedit.o(i.CCGraphic_init_CCGraphicTextEdit) refers to ccgraphic_textedit.o(i.__pvt_show) for __pvt_show
    ccgraphic_textedit.o(i.CCGraphic_init_CCGraphicTextEdit) refers to ccgraphic_textedit.o(i.__pvt_update_text) for __pvt_update_text
    ccgraphic_textedit.o(i.__pvt_append_text) refers to ccgraphic_textitem.o(i.CCGraphicWidget_AsciiTextItem_setAsciiText) for CCGraphicWidget_AsciiTextItem_setAsciiText
    ccgraphic_textedit.o(i.__pvt_append_text) refers to ccgraphic_textedit.o(i.__pvt_show) for __pvt_show
    ccgraphic_textedit.o(i.__pvt_clear_text) refers to ccgraphic_textedit.o(i.__pvt_update_text) for __pvt_update_text
    ccgraphic_textedit.o(i.__pvt_hide) refers to ccgraphic_textedit.o(i.__pvt_update_text) for __pvt_update_text
    ccgraphic_textedit.o(i.__pvt_newLine_text) refers to ccgraphic_textitem.o(i.CCGraphicWidget_AsciiTextItem_on_newLine_point) for CCGraphicWidget_AsciiTextItem_on_newLine_point
    ccgraphic_textedit.o(i.__pvt_newLine_text) refers to ccgraphic_textitem.o(i.CCGraphicWidget_AsciiTextItem_setAsciiText) for CCGraphicWidget_AsciiTextItem_setAsciiText
    ccgraphic_textedit.o(i.__pvt_newLine_text) refers to ccgraphic_textitem.o(i.CCGraphicWidget_AsciiTextItem_setIndexedPoint) for CCGraphicWidget_AsciiTextItem_setIndexedPoint
    ccgraphic_textedit.o(i.__pvt_newLine_text) refers to ccgraphic_textedit.o(i.__pvt_show) for __pvt_show
    ccgraphic_textedit.o(i.__pvt_relocate) refers to ccgraphic_textedit.o(i.__pvt_hide) for __pvt_hide
    ccgraphic_textedit.o(i.__pvt_relocate) refers to ccgraphic_textitem.o(i.CCGraphicWidget_AsciiTextItem_relocate) for CCGraphicWidget_AsciiTextItem_relocate
    ccgraphic_textedit.o(i.__pvt_setText) refers to ccgraphic_textedit.o(i.__pvt_clear_text) for __pvt_clear_text
    ccgraphic_textedit.o(i.__pvt_setText) refers to ccgraphic_textitem.o(i.CCGraphicWidget_AsciiTextItem_setIndexedPoint) for CCGraphicWidget_AsciiTextItem_setIndexedPoint
    ccgraphic_textedit.o(i.__pvt_setText) refers to ccgraphic_textitem.o(i.CCGraphicWidget_AsciiTextItem_setAsciiText) for CCGraphicWidget_AsciiTextItem_setAsciiText
    ccgraphic_textedit.o(i.__pvt_setText) refers to ccgraphic_textedit.o(i.__pvt_show) for __pvt_show
    ccgraphic_textedit.o(i.__pvt_show) refers to ccgraphic_textitem.o(i.CCGraphicWidget_drawAsciiTextItem) for CCGraphicWidget_drawAsciiTextItem
    ccgraphic_textedit.o(i.__pvt_show) refers to ccgraphic_textedit.o(i.__pvt_update_text) for __pvt_update_text
    ccgraphic_textitem.o(i.CCGraphicWidget_AsciiTextItem_on_newLine_point) refers to ccgraphic_textconfig.o(i.__fetch_font_size) for __fetch_font_size
    ccgraphic_textitem.o(i.CCGraphicWidget_drawAsciiTextItem) refers to strcmpv7m.o(.text) for strcmp
    ccgraphic_textitem.o(i.CCGraphicWidget_drawAsciiTextItem) refers to ccgraphic_textconfig.o(i.__fetch_font_size) for __fetch_font_size
    ccgraphic_textitem.o(i.CCGraphicWidget_drawAsciiTextItem) refers to ccgraphic_textitem.o(i.__pvt_fetch_valid_final_point) for __pvt_fetch_valid_final_point
    ccgraphic_textitem.o(i.CCGraphicWidget_drawAsciiTextItem) refers to ccgraphic_textitem.o(i.__pvt_draw_char_each) for __pvt_draw_char_each
    ccgraphic_textitem.o(i.CCGraphicWidget_drawAsciiTextItem) refers to ccgraphic_textitem.o(i.__pvt_should_be_next_line) for __pvt_should_be_next_line
    ccgraphic_textitem.o(i.CCGraphicWidget_drawAsciiTextItem_with_finPoint) refers to strcmpv7m.o(.text) for strcmp
    ccgraphic_textitem.o(i.CCGraphicWidget_drawAsciiTextItem_with_finPoint) refers to ccgraphic_textconfig.o(i.__fetch_font_size) for __fetch_font_size
    ccgraphic_textitem.o(i.CCGraphicWidget_drawAsciiTextItem_with_finPoint) refers to ccgraphic_textitem.o(i.__pvt_fetch_valid_final_point) for __pvt_fetch_valid_final_point
    ccgraphic_textitem.o(i.CCGraphicWidget_drawAsciiTextItem_with_finPoint) refers to ccgraphic_textitem.o(i.__pvt_draw_char_each) for __pvt_draw_char_each
    ccgraphic_textitem.o(i.CCGraphicWidget_drawAsciiTextItem_with_finPoint) refers to ccgraphic_textitem.o(i.__pvt_should_be_next_line) for __pvt_should_be_next_line
    ccgraphic_textitem.o(i.__pvt_draw_char_each) refers to ccgraphic_textconfig.o(i.__fetch_font_size) for __fetch_font_size
    ccgraphic_textitem.o(i.__pvt_draw_char_each) refers to ccgraphic_textconfig.o(i.__select_from_ascii_font_size) for __select_from_ascii_font_size
    ccgraphic_textitem.o(i.__pvt_draw_char_each) refers to ccgraphic_image.o(i.CCGraphicWidget_draw_image) for CCGraphicWidget_draw_image
    ccgraphic_textitem.o(i.__pvt_should_be_next_line) refers to ccgraphic_textconfig.o(i.__fetch_font_size) for __fetch_font_size
    ccgraphic_textitem.o(i.__pvt_should_be_next_line) refers to dflt_clz.o(x$fpl$dfltu) for __aeabi_ui2d
    ccgraphic_textitem.o(i.__pvt_should_be_next_line) refers to dmul.o(x$fpl$dmul) for __aeabi_dmul
    ccgraphic_textitem.o(i.__pvt_should_be_next_line) refers to dfix.o(x$fpl$dfix) for __aeabi_d2iz
    ccgraphic_triangle.o(i.CCGraphic_draw_triangle) refers to ccgraphic_line.o(i.CCGraphic_init_line) for CCGraphic_init_line
    ccgraphic_triangle.o(i.CCGraphic_draw_triangle) refers to ccgraphic_line.o(i.CCGraphic_draw_line) for CCGraphic_draw_line
    ccgraphic_triangle.o(i.CCGraphic_drawfilled_triangle) refers to ccgraphic_utils.o(i.find_int16min) for find_int16min
    ccgraphic_triangle.o(i.CCGraphic_drawfilled_triangle) refers to ccgraphic_utils.o(i.find_int16max) for find_int16max
    ccgraphic_triangle.o(i.CCGraphic_drawfilled_triangle) refers to ccgraphic_triangle.o(i.__pvt_is_in_triangle) for __pvt_is_in_triangle
    ccgraphic_triangle.o(i.CCGraphic_drawfilled_triangle) refers to ccgraphic_point.o(i.CCGraphic_draw_point) for CCGraphic_draw_point
    graphic_test_base.o(i.on_test_draw_arc) refers to ccgraphic_arc.o(i.CCGraphic_init_CCGraphic_Arc) for CCGraphic_init_CCGraphic_Arc
    graphic_test_base.o(i.on_test_draw_arc) refers to ccgraphic_arc.o(i.CCGraphic_draw_arc) for CCGraphic_draw_arc
    graphic_test_base.o(i.on_test_draw_circle) refers to ccgraphic_circle.o(i.CCGraphic_init_circle) for CCGraphic_init_circle
    graphic_test_base.o(i.on_test_draw_circle) refers to ccgraphic_circle.o(i.CCGraphic_drawfilled_circle) for CCGraphic_drawfilled_circle
    graphic_test_base.o(i.on_test_draw_circle) refers to ccgraphic_circle.o(i.CCGraphic_draw_circle) for CCGraphic_draw_circle
    graphic_test_base.o(i.on_test_draw_ellipse) refers to ccgraphic_ellipse.o(i.CCGraphic_init_ellipse) for CCGraphic_init_ellipse
    graphic_test_base.o(i.on_test_draw_ellipse) refers to ccgraphic_ellipse.o(i.CCGraphic_draw_ellipse) for CCGraphic_draw_ellipse
    graphic_test_base.o(i.on_test_draw_ellipse) refers to ccgraphic_ellipse.o(i.CCGraphic_drawfilled_ellipse) for CCGraphic_drawfilled_ellipse
    graphic_test_base.o(i.on_test_draw_line) refers to ccgraphic_line.o(i.CCGraphic_init_line) for CCGraphic_init_line
    graphic_test_base.o(i.on_test_draw_line) refers to ccgraphic_line.o(i.CCGraphic_draw_line) for CCGraphic_draw_line
    graphic_test_base.o(i.on_test_draw_points) refers to ccgraphic_point.o(i.CCGraphic_init_point) for CCGraphic_init_point
    graphic_test_base.o(i.on_test_draw_points) refers to ccgraphic_point.o(i.CCGraphic_draw_point) for CCGraphic_draw_point
    graphic_test_base.o(i.on_test_draw_rectangle) refers to ccgraphic_rectangle.o(i.CCGraphic_init_rectangle) for CCGraphic_init_rectangle
    graphic_test_base.o(i.on_test_draw_rectangle) refers to ccgraphic_rectangle.o(i.CCGraphic_draw_rectangle) for CCGraphic_draw_rectangle
    graphic_test_base.o(i.on_test_draw_rectangle) refers to ccgraphic_rectangle.o(i.CCGraphic_drawfilled_rectangle) for CCGraphic_drawfilled_rectangle
    graphic_test_base.o(i.on_test_draw_triangle) refers to ccgraphic_triangle.o(i.CCGraphic_init_triangle) for CCGraphic_init_triangle
    graphic_test_base.o(i.on_test_draw_triangle) refers to ccgraphic_triangle.o(i.CCGraphic_drawfilled_triangle) for CCGraphic_drawfilled_triangle
    graphic_test_device.o(i.on_test_init_softspi_oled) refers to soft_spi_fast_setup.o(i.oled_soft_spi_setup) for oled_soft_spi_setup
    graphic_test_widget.o(i.on_test_draw_ascii) refers to ccgraphicwidget_base.o(i.CCGraphicWidget_MaxAcceptable_Size) for CCGraphicWidget_MaxAcceptable_Size
    graphic_test_widget.o(i.on_test_draw_ascii) refers to ccgraphic_textitem.o(i.CCGraphicWidget_init_AsciiTextItem) for CCGraphicWidget_init_AsciiTextItem
    graphic_test_widget.o(i.on_test_draw_ascii) refers to ccgraphic_textitem.o(i.CCGraphicWidget_AsciiTextItem_setAsciiText) for CCGraphicWidget_AsciiTextItem_setAsciiText
    graphic_test_widget.o(i.on_test_draw_ascii) refers to ccgraphic_textitem.o(i.CCGraphicWidget_drawAsciiTextItem_with_finPoint) for CCGraphicWidget_drawAsciiTextItem_with_finPoint
    graphic_test_widget.o(i.on_test_draw_ascii) refers to ccgraphic_textitem.o(i.CCGraphicWidget_AsciiTextItem_setIndexedPoint) for CCGraphicWidget_AsciiTextItem_setIndexedPoint
    graphic_test_widget.o(i.on_test_draw_ascii) refers to stm32f1xx_hal.o(i.HAL_Delay) for HAL_Delay
    graphic_test_widget.o(i.on_test_draw_ascii) refers to ccgraphic_textitem.o(i.CCGraphicWidget_drawAsciiTextItem) for CCGraphicWidget_drawAsciiTextItem
    graphic_test_widget.o(i.on_test_draw_image) refers to ccgraphic_image.o(i.CCGraphicWidget_init_image) for CCGraphicWidget_init_image
    graphic_test_widget.o(i.on_test_draw_image) refers to ccgraphic_image.o(i.CCGraphicWidget_draw_image) for CCGraphicWidget_draw_image
    graphic_test_widget.o(i.on_test_draw_image) refers to test_image.o(.constdata) for test_image
    graphoc_test_components.o(i.on_test_component_frame_test) refers to ccgraphic_frame.o(i.CCGraphic_createDeviceFrame) for CCGraphic_createDeviceFrame
    graphoc_test_components.o(i.on_test_component_frame_test) refers to stm32f1xx_hal.o(i.HAL_Delay) for HAL_Delay
    graphoc_test_components.o(i.on_test_component_menu) refers to ccgraphicwidget_base.o(i.CCGraphicWidget_MaxAcceptable_Size) for CCGraphicWidget_MaxAcceptable_Size
    graphoc_test_components.o(i.on_test_component_menu) refers to ccgraphic_textitem.o(i.CCGraphicWidget_init_AsciiTextItem) for CCGraphicWidget_init_AsciiTextItem
    graphoc_test_components.o(i.on_test_component_menu) refers to ccgraphic_textedit.o(i.CCGraphic_init_CCGraphicTextEdit) for CCGraphic_init_CCGraphicTextEdit
    graphoc_test_components.o(i.on_test_component_menu) refers to ccgraphic_menu.o(i.CCGraphic_init_Menu) for CCGraphic_init_Menu
    graphoc_test_components.o(i.on_test_component_menu) refers to stm32f1xx_hal.o(i.HAL_Delay) for HAL_Delay
    graphoc_test_components.o(i.on_test_component_menu) refers to graphoc_test_components.o(.bss) for .bss
    graphoc_test_components.o(i.on_test_component_menu) refers to graphoc_test_components.o(.data) for .data
    graphoc_test_components.o(i.on_test_component_textEdit_test) refers to _printf_percent.o(.ARM.Collect$$_printf_percent$$00000000) for _printf_percent
    graphoc_test_components.o(i.on_test_component_textEdit_test) refers to _printf_d.o(.ARM.Collect$$_printf_percent$$00000009) for _printf_d
    graphoc_test_components.o(i.on_test_component_textEdit_test) refers to _printf_dec.o(.text) for _printf_int_dec
    graphoc_test_components.o(i.on_test_component_textEdit_test) refers to ccgraphicwidget_base.o(i.CCGraphicWidget_MaxAcceptable_Size) for CCGraphicWidget_MaxAcceptable_Size
    graphoc_test_components.o(i.on_test_component_textEdit_test) refers to ccgraphic_textitem.o(i.CCGraphicWidget_init_AsciiTextItem) for CCGraphicWidget_init_AsciiTextItem
    graphoc_test_components.o(i.on_test_component_textEdit_test) refers to ccgraphic_textedit.o(i.CCGraphic_init_CCGraphicTextEdit) for CCGraphic_init_CCGraphicTextEdit
    graphoc_test_components.o(i.on_test_component_textEdit_test) refers to stm32f1xx_hal.o(i.HAL_Delay) for HAL_Delay
    graphoc_test_components.o(i.on_test_component_textEdit_test) refers to noretval__2snprintf.o(.text) for __2snprintf
    graphoc_test_components.o(.data) refers to graphoc_test_components.o(.conststring) for .conststring
    graphoc_test_components.o(.data) refers to graphoc_test_components.o(.bss) for submenu
    graphoc_test_components.o(.data) refers to test_image.o(.constdata) for playImage
    graphoc_test_components.o(.data) refers to test_image.o(.constdata) for helpImage
    graphoc_test_components.o(.data) refers to test_image.o(.constdata) for settingsImage
    graphoc_test_components.o(.data) refers to test_image.o(.constdata) for quitImage
    main.o(i.SystemClock_Config) refers to rt_memclr_w.o(.text) for __aeabi_memclr4
    main.o(i.SystemClock_Config) refers to stm32f1xx_hal_rcc.o(i.HAL_RCC_OscConfig) for HAL_RCC_OscConfig
    main.o(i.SystemClock_Config) refers to stm32f1xx_hal_rcc.o(i.HAL_RCC_ClockConfig) for HAL_RCC_ClockConfig
    main.o(i.main) refers to stm32f1xx_hal.o(i.HAL_Init) for HAL_Init
    main.o(i.main) refers to main.o(i.SystemClock_Config) for SystemClock_Config
    main.o(i.main) refers to gpio.o(i.MX_GPIO_Init) for MX_GPIO_Init
    main.o(i.main) refers to test_all.o(i.test_oled_spi_functionalities) for test_oled_spi_functionalities
    main.o(i.main) refers to test_all.o(i.test_graphic_softspi_functionalities) for test_graphic_softspi_functionalities
    oled_base_driver_ssd1309.o(i.__pvt_oled_set_cursor) refers to oled_base_driver_ssd1309.o(i.__on_fetch_oled_table) for __on_fetch_oled_table
    oled_base_driver_ssd1309.o(i.close_oled) refers to oled_base_driver_ssd1309.o(i.__on_fetch_oled_table) for __on_fetch_oled_table
    oled_base_driver_ssd1309.o(i.oled_helper_clear_area) refers to oled_base_driver_ssd1309.o(.bss) for .bss
    oled_base_driver_ssd1309.o(i.oled_helper_clear_frame) refers to rt_memclr.o(.text) for __aeabi_memclr
    oled_base_driver_ssd1309.o(i.oled_helper_clear_frame) refers to oled_base_driver_ssd1309.o(.bss) for .bss
    oled_base_driver_ssd1309.o(i.oled_helper_draw_area) refers to oled_base_driver_ssd1309.o(i.oled_helper_clear_area) for oled_helper_clear_area
    oled_base_driver_ssd1309.o(i.oled_helper_draw_area) refers to oled_base_driver_ssd1309.o(.bss) for .bss
    oled_base_driver_ssd1309.o(i.oled_helper_reverse) refers to oled_base_driver_ssd1309.o(.bss) for .bss
    oled_base_driver_ssd1309.o(i.oled_helper_reversearea) refers to oled_base_driver_ssd1309.o(.bss) for .bss
    oled_base_driver_ssd1309.o(i.oled_helper_setpixel) refers to oled_base_driver_ssd1309.o(.bss) for .bss
    oled_base_driver_ssd1309.o(i.oled_helper_update) refers to oled_base_driver_ssd1309.o(i.__on_fetch_oled_table) for __on_fetch_oled_table
    oled_base_driver_ssd1309.o(i.oled_helper_update) refers to oled_base_driver_ssd1309.o(i.__pvt_oled_set_cursor) for __pvt_oled_set_cursor
    oled_base_driver_ssd1309.o(i.oled_helper_update) refers to oled_base_driver_ssd1309.o(.bss) for .bss
    oled_base_driver_ssd1309.o(i.oled_helper_update_area) refers to oled_base_driver_ssd1309.o(i.__on_fetch_oled_table) for __on_fetch_oled_table
    oled_base_driver_ssd1309.o(i.oled_helper_update_area) refers to oled_base_driver_ssd1309.o(i.__pvt_oled_set_cursor) for __pvt_oled_set_cursor
    oled_base_driver_ssd1309.o(i.oled_helper_update_area) refers to oled_base_driver_ssd1309.o(.bss) for .bss
    oled_base_driver_ssd1309.o(i.oled_init_softspi_handle) refers to rt_memclr.o(.text) for __aeabi_memclr
    oled_base_driver_ssd1309.o(i.oled_init_softspi_handle) refers to oled_base_driver_ssd1309.o(i.oled_helper_update) for oled_helper_update
    oled_base_driver_ssd1309.o(i.oled_init_softspi_handle) refers to oled_base_driver_ssd1309.o(.constdata) for .constdata
    oled_base_driver_ssd1309.o(i.oled_init_softspi_handle) refers to oled_base_driver_ssd1309.o(.bss) for .bss
    oled_base_driver_ssd1309.o(i.open_oled) refers to oled_base_driver_ssd1309.o(i.__on_fetch_oled_table) for __on_fetch_oled_table
    oled_test.o(i.test_clear) refers to oled_base_driver_ssd1309.o(i.oled_helper_clear_frame) for oled_helper_clear_frame
    oled_test.o(i.test_clear) refers to oled_base_driver_ssd1309.o(i.oled_helper_update) for oled_helper_update
    oled_test.o(i.test_set_pixel) refers to oled_base_driver_ssd1309.o(i.oled_helper_setpixel) for oled_helper_setpixel
    oled_test.o(i.test_set_pixel) refers to oled_base_driver_ssd1309.o(i.oled_helper_update) for oled_helper_update
    oled_test.o(i.test_set_pixel_line) refers to oled_base_driver_ssd1309.o(i.oled_helper_setpixel) for oled_helper_setpixel
    oled_test.o(i.test_set_pixel_line) refers to oled_base_driver_ssd1309.o(i.oled_helper_update) for oled_helper_update
    oled_test_soft_spi.o(i.user_init_soft_spi_oled_handle) refers to soft_spi.o(i.oled_bind_softspi_pack) for oled_bind_softspi_pack
    oled_test_soft_spi.o(i.user_init_soft_spi_oled_handle) refers to oled_base_driver_ssd1309.o(i.oled_init_softspi_handle) for oled_init_softspi_handle
    oled_test_soft_spi.o(i.user_init_soft_spi_oled_handle) refers to oled_test_soft_spi.o(.data) for .data
    oled_test_soft_spi.o(i.user_init_soft_spi_oled_handle) refers to oled_test_soft_spi.o(.bss) for .bss
    simple_text.o(i.__pvt_set_up) refers to ccgraphicwidget_base.o(i.CCGraphicWidget_MaxAcceptable_Size) for CCGraphicWidget_MaxAcceptable_Size
    simple_text.o(i.__pvt_set_up) refers to ccgraphic_textitem.o(i.CCGraphicWidget_init_AsciiTextItem) for CCGraphicWidget_init_AsciiTextItem
    simple_text.o(i.__pvt_set_up) refers to ccgraphic_textedit.o(i.CCGraphic_init_CCGraphicTextEdit) for CCGraphic_init_CCGraphicTextEdit
    simple_text.o(i.__pvt_set_up) refers to simple_text.o(.bss) for .bss
    simple_text.o(i.__pvt_set_up) refers to simple_text.o(.data) for .data
    simple_text.o(i.set_newline_text) refers to simple_text.o(i.__pvt_set_up) for __pvt_set_up
    simple_text.o(i.set_newline_text) refers to simple_text.o(.data) for .data
    simple_text.o(i.set_simple_text) refers to simple_text.o(i.__pvt_set_up) for __pvt_set_up
    simple_text.o(i.set_simple_text) refers to simple_text.o(.data) for .data
    soft_spi.o(i.__pvt_init_soft_spi_gpio_init) refers to stm32f1xx_hal_gpio.o(i.HAL_GPIO_Init) for HAL_GPIO_Init
    soft_spi.o(i.__pvt_init_soft_spi_gpio_init) refers to stm32f1xx_hal_gpio.o(i.HAL_GPIO_WritePin) for HAL_GPIO_WritePin
    soft_spi.o(i.__pvt_init_soft_spi_gpio_init) refers to stm32f1xx_hal.o(i.HAL_Delay) for HAL_Delay
    soft_spi.o(i.__pvt_send_command) refers to stm32f1xx_hal_gpio.o(i.HAL_GPIO_WritePin) for HAL_GPIO_WritePin
    soft_spi.o(i.__pvt_send_data) refers to stm32f1xx_hal_gpio.o(i.HAL_GPIO_WritePin) for HAL_GPIO_WritePin
    soft_spi.o(i.oled_bind_softspi_pack) refers to soft_spi.o(i.__pvt_init_soft_spi_gpio_init) for __pvt_init_soft_spi_gpio_init
    soft_spi.o(i.oled_bind_softspi_pack) refers to soft_spi.o(i.__pvt_send_command) for __pvt_send_command
    soft_spi.o(i.oled_bind_softspi_pack) refers to soft_spi.o(i.__pvt_send_data) for __pvt_send_data
    soft_spi_fast_setup.o(i.oled_soft_spi_setup) refers to soft_spi.o(i.oled_bind_softspi_pack) for oled_bind_softspi_pack
    soft_spi_fast_setup.o(i.oled_soft_spi_setup) refers to ccgraphic_device_adapter.o(i.__register_paintdevice) for __register_paintdevice
    soft_spi_fast_setup.o(i.oled_soft_spi_setup) refers to soft_spi_fast_setup.o(.data) for .data
    soft_spi_fast_setup.o(i.oled_soft_spi_setup) refers to soft_spi_fast_setup.o(.bss) for .bss
    stm32f1xx_it.o(i.SysTick_Handler) refers to stm32f1xx_hal.o(i.HAL_IncTick) for HAL_IncTick
    test_all.o(i.__helper_on_set_text) refers to stm32f1xx_hal.o(i.HAL_Delay) for HAL_Delay
    test_all.o(i.__test_common) refers to ccgraphicwidget_base.o(i.CCGraphicWidget_MaxAcceptable_Size) for CCGraphicWidget_MaxAcceptable_Size
    test_all.o(i.__test_common) refers to ccgraphic_textitem.o(i.CCGraphicWidget_init_AsciiTextItem) for CCGraphicWidget_init_AsciiTextItem
    test_all.o(i.__test_common) refers to ccgraphic_textedit.o(i.CCGraphic_init_CCGraphicTextEdit) for CCGraphic_init_CCGraphicTextEdit
    test_all.o(i.__test_common) refers to test_all.o(i.__helper_on_set_text) for __helper_on_set_text
    test_all.o(i.__test_common) refers to graphic_test_base.o(i.on_test_draw_points) for on_test_draw_points
    test_all.o(i.__test_common) refers to stm32f1xx_hal.o(i.HAL_Delay) for HAL_Delay
    test_all.o(i.__test_common) refers to graphic_test_base.o(i.on_test_draw_line) for on_test_draw_line
    test_all.o(i.__test_common) refers to graphic_test_base.o(i.on_test_draw_circle) for on_test_draw_circle
    test_all.o(i.__test_common) refers to graphic_test_base.o(i.on_test_draw_rectangle) for on_test_draw_rectangle
    test_all.o(i.__test_common) refers to graphic_test_base.o(i.on_test_draw_triangle) for on_test_draw_triangle
    test_all.o(i.__test_common) refers to graphic_test_base.o(i.on_test_draw_ellipse) for on_test_draw_ellipse
    test_all.o(i.__test_common) refers to graphic_test_base.o(i.on_test_draw_arc) for on_test_draw_arc
    test_all.o(i.__test_common) refers to graphic_test_widget.o(i.on_test_draw_image) for on_test_draw_image
    test_all.o(i.__test_common) refers to graphic_test_widget.o(i.on_test_draw_ascii) for on_test_draw_ascii
    test_all.o(i.__test_common) refers to graphoc_test_components.o(i.on_test_component_textEdit_test) for on_test_component_textEdit_test
    test_all.o(i.__test_common) refers to graphoc_test_components.o(i.on_test_component_frame_test) for on_test_component_frame_test
    test_all.o(i.__test_common) refers to graphoc_test_components.o(i.on_test_component_menu) for on_test_component_menu
    test_all.o(i.__test_common) refers to test_all.o(.conststring) for .conststring
    test_all.o(i.test_graphic_softspi_functionalities) refers to graphic_test_device.o(i.on_test_init_softspi_oled) for on_test_init_softspi_oled
    test_all.o(i.test_graphic_softspi_functionalities) refers to test_all.o(i.__test_common) for __test_common
    test_all.o(i.test_oled_spi_functionalities) refers to oled_test_soft_spi.o(i.user_init_soft_spi_oled_handle) for user_init_soft_spi_oled_handle
    test_all.o(i.test_oled_spi_functionalities) refers to oled_test.o(i.test_set_pixel_line) for test_set_pixel_line
    test_all.o(i.test_oled_spi_functionalities) refers to stm32f1xx_hal.o(i.HAL_Delay) for HAL_Delay
    test_all.o(i.test_oled_spi_functionalities) refers to oled_test.o(i.test_clear) for test_clear
    stm32f1xx_hal.o(i.HAL_DeInit) refers to stm32f1xx_hal.o(i.HAL_MspDeInit) for HAL_MspDeInit
    stm32f1xx_hal.o(i.HAL_Delay) refers to stm32f1xx_hal.o(i.HAL_GetTick) for HAL_GetTick
    stm32f1xx_hal.o(i.HAL_Delay) refers to stm32f1xx_hal.o(.data) for .data
    stm32f1xx_hal.o(i.HAL_GetTick) refers to stm32f1xx_hal.o(.data) for .data
    stm32f1xx_hal.o(i.HAL_GetTickFreq) refers to stm32f1xx_hal.o(.data) for .data
    stm32f1xx_hal.o(i.HAL_GetTickPrio) refers to stm32f1xx_hal.o(.data) for .data
    stm32f1xx_hal.o(i.HAL_IncTick) refers to stm32f1xx_hal.o(.data) for .data
    stm32f1xx_hal.o(i.HAL_Init) refers to stm32f1xx_hal_cortex.o(i.HAL_NVIC_SetPriorityGrouping) for HAL_NVIC_SetPriorityGrouping
    stm32f1xx_hal.o(i.HAL_Init) refers to stm32f1xx_hal.o(i.HAL_InitTick) for HAL_InitTick
    stm32f1xx_hal.o(i.HAL_Init) refers to stm32f1xx_hal_msp.o(i.HAL_MspInit) for HAL_MspInit
    stm32f1xx_hal.o(i.HAL_InitTick) refers to stm32f1xx_hal_cortex.o(i.HAL_SYSTICK_Config) for HAL_SYSTICK_Config
    stm32f1xx_hal.o(i.HAL_InitTick) refers to stm32f1xx_hal_cortex.o(i.HAL_NVIC_SetPriority) for HAL_NVIC_SetPriority
    stm32f1xx_hal.o(i.HAL_InitTick) refers to stm32f1xx_hal.o(.data) for .data
    stm32f1xx_hal.o(i.HAL_InitTick) refers to system_stm32f1xx_1.o(.data) for SystemCoreClock
    stm32f1xx_hal.o(i.HAL_SetTickFreq) refers to stm32f1xx_hal.o(i.HAL_InitTick) for HAL_InitTick
    stm32f1xx_hal.o(i.HAL_SetTickFreq) refers to stm32f1xx_hal.o(.data) for .data
    stm32f1xx_hal_rcc.o(i.HAL_RCC_ClockConfig) refers to stm32f1xx_hal.o(i.HAL_GetTick) for HAL_GetTick
    stm32f1xx_hal_rcc.o(i.HAL_RCC_ClockConfig) refers to stm32f1xx_hal_rcc.o(i.HAL_RCC_GetSysClockFreq) for HAL_RCC_GetSysClockFreq
    stm32f1xx_hal_rcc.o(i.HAL_RCC_ClockConfig) refers to stm32f1xx_hal.o(i.HAL_InitTick) for HAL_InitTick
    stm32f1xx_hal_rcc.o(i.HAL_RCC_ClockConfig) refers to system_stm32f1xx_1.o(.constdata) for AHBPrescTable
    stm32f1xx_hal_rcc.o(i.HAL_RCC_ClockConfig) refers to system_stm32f1xx_1.o(.data) for SystemCoreClock
    stm32f1xx_hal_rcc.o(i.HAL_RCC_ClockConfig) refers to stm32f1xx_hal.o(.data) for uwTickPrio
    stm32f1xx_hal_rcc.o(i.HAL_RCC_DeInit) refers to stm32f1xx_hal.o(i.HAL_GetTick) for HAL_GetTick
    stm32f1xx_hal_rcc.o(i.HAL_RCC_DeInit) refers to stm32f1xx_hal.o(i.HAL_InitTick) for HAL_InitTick
    stm32f1xx_hal_rcc.o(i.HAL_RCC_DeInit) refers to system_stm32f1xx_1.o(.data) for SystemCoreClock
    stm32f1xx_hal_rcc.o(i.HAL_RCC_DeInit) refers to stm32f1xx_hal.o(.data) for uwTickPrio
    stm32f1xx_hal_rcc.o(i.HAL_RCC_GetHCLKFreq) refers to system_stm32f1xx_1.o(.data) for SystemCoreClock
    stm32f1xx_hal_rcc.o(i.HAL_RCC_GetPCLK1Freq) refers to system_stm32f1xx_1.o(.data) for SystemCoreClock
    stm32f1xx_hal_rcc.o(i.HAL_RCC_GetPCLK1Freq) refers to system_stm32f1xx_1.o(.constdata) for APBPrescTable
    stm32f1xx_hal_rcc.o(i.HAL_RCC_GetPCLK2Freq) refers to system_stm32f1xx_1.o(.data) for SystemCoreClock
    stm32f1xx_hal_rcc.o(i.HAL_RCC_GetPCLK2Freq) refers to system_stm32f1xx_1.o(.constdata) for APBPrescTable
    stm32f1xx_hal_rcc.o(i.HAL_RCC_GetSysClockFreq) refers to stm32f1xx_hal_rcc.o(.constdata) for .constdata
    stm32f1xx_hal_rcc.o(i.HAL_RCC_MCOConfig) refers to stm32f1xx_hal_gpio.o(i.HAL_GPIO_Init) for HAL_GPIO_Init
    stm32f1xx_hal_rcc.o(i.HAL_RCC_NMI_IRQHandler) refers to stm32f1xx_hal_rcc.o(i.HAL_RCC_CSSCallback) for HAL_RCC_CSSCallback
    stm32f1xx_hal_rcc.o(i.HAL_RCC_OscConfig) refers to stm32f1xx_hal.o(i.HAL_GetTick) for HAL_GetTick
    stm32f1xx_hal_rcc.o(i.HAL_RCC_OscConfig) refers to system_stm32f1xx_1.o(.data) for SystemCoreClock
    stm32f1xx_hal_rcc_ex.o(i.HAL_RCCEx_GetPeriphCLKFreq) refers to stm32f1xx_hal_rcc.o(i.HAL_RCC_GetPCLK2Freq) for HAL_RCC_GetPCLK2Freq
    stm32f1xx_hal_rcc_ex.o(i.HAL_RCCEx_GetPeriphCLKFreq) refers to stm32f1xx_hal_rcc.o(i.HAL_RCC_GetSysClockFreq) for HAL_RCC_GetSysClockFreq
    stm32f1xx_hal_rcc_ex.o(i.HAL_RCCEx_GetPeriphCLKFreq) refers to stm32f1xx_hal_rcc_ex.o(.constdata) for .constdata
    stm32f1xx_hal_rcc_ex.o(i.HAL_RCCEx_PeriphCLKConfig) refers to stm32f1xx_hal.o(i.HAL_GetTick) for HAL_GetTick
    stm32f1xx_hal_gpio.o(i.HAL_GPIO_EXTI_IRQHandler) refers to stm32f1xx_hal_gpio.o(i.HAL_GPIO_EXTI_Callback) for HAL_GPIO_EXTI_Callback
    stm32f1xx_hal_dma.o(i.HAL_DMA_PollForTransfer) refers to stm32f1xx_hal.o(i.HAL_GetTick) for HAL_GetTick
    stm32f1xx_hal_dma.o(i.HAL_DMA_Start) refers to stm32f1xx_hal_dma.o(i.DMA_SetConfig) for DMA_SetConfig
    stm32f1xx_hal_dma.o(i.HAL_DMA_Start_IT) refers to stm32f1xx_hal_dma.o(i.DMA_SetConfig) for DMA_SetConfig
    stm32f1xx_hal_cortex.o(i.HAL_NVIC_SetPriority) refers to stm32f1xx_hal_cortex.o(i.__NVIC_SetPriority) for __NVIC_SetPriority
    stm32f1xx_hal_cortex.o(i.HAL_SYSTICK_Config) refers to stm32f1xx_hal_cortex.o(i.__NVIC_SetPriority) for __NVIC_SetPriority
    stm32f1xx_hal_cortex.o(i.HAL_SYSTICK_IRQHandler) refers to stm32f1xx_hal_cortex.o(i.HAL_SYSTICK_Callback) for HAL_SYSTICK_Callback
    stm32f1xx_hal_pwr.o(i.HAL_PWR_EnterSTOPMode) refers to stm32f1xx_hal_pwr.o(i.PWR_OverloadWfe) for PWR_OverloadWfe
    stm32f1xx_hal_pwr.o(i.HAL_PWR_PVD_IRQHandler) refers to stm32f1xx_hal_pwr.o(i.HAL_PWR_PVDCallback) for HAL_PWR_PVDCallback
    stm32f1xx_hal_flash.o(i.FLASH_Program_HalfWord) refers to stm32f1xx_hal_flash.o(.bss) for .bss
    stm32f1xx_hal_flash.o(i.FLASH_SetErrorCode) refers to stm32f1xx_hal_flash.o(.bss) for .bss
    stm32f1xx_hal_flash.o(i.FLASH_WaitForLastOperation) refers to stm32f1xx_hal.o(i.HAL_GetTick) for HAL_GetTick
    stm32f1xx_hal_flash.o(i.FLASH_WaitForLastOperation) refers to stm32f1xx_hal_flash.o(i.FLASH_SetErrorCode) for FLASH_SetErrorCode
    stm32f1xx_hal_flash.o(i.HAL_FLASH_GetError) refers to stm32f1xx_hal_flash.o(.bss) for .bss
    stm32f1xx_hal_flash.o(i.HAL_FLASH_IRQHandler) refers to stm32f1xx_hal_flash.o(i.FLASH_SetErrorCode) for FLASH_SetErrorCode
    stm32f1xx_hal_flash.o(i.HAL_FLASH_IRQHandler) refers to stm32f1xx_hal_flash.o(i.HAL_FLASH_OperationErrorCallback) for HAL_FLASH_OperationErrorCallback
    stm32f1xx_hal_flash.o(i.HAL_FLASH_IRQHandler) refers to stm32f1xx_hal_flash.o(i.FLASH_Program_HalfWord) for FLASH_Program_HalfWord
    stm32f1xx_hal_flash.o(i.HAL_FLASH_IRQHandler) refers to stm32f1xx_hal_flash.o(i.HAL_FLASH_EndOfOperationCallback) for HAL_FLASH_EndOfOperationCallback
    stm32f1xx_hal_flash.o(i.HAL_FLASH_IRQHandler) refers to stm32f1xx_hal_flash_ex.o(i.FLASH_PageErase) for FLASH_PageErase
    stm32f1xx_hal_flash.o(i.HAL_FLASH_IRQHandler) refers to stm32f1xx_hal_flash.o(.bss) for .bss
    stm32f1xx_hal_flash.o(i.HAL_FLASH_OB_Launch) refers to stm32f1xx_hal_cortex.o(i.HAL_NVIC_SystemReset) for HAL_NVIC_SystemReset
    stm32f1xx_hal_flash.o(i.HAL_FLASH_Program) refers to stm32f1xx_hal_flash.o(i.FLASH_WaitForLastOperation) for FLASH_WaitForLastOperation
    stm32f1xx_hal_flash.o(i.HAL_FLASH_Program) refers to llushr.o(.text) for __aeabi_llsr
    stm32f1xx_hal_flash.o(i.HAL_FLASH_Program) refers to stm32f1xx_hal_flash.o(i.FLASH_Program_HalfWord) for FLASH_Program_HalfWord
    stm32f1xx_hal_flash.o(i.HAL_FLASH_Program) refers to stm32f1xx_hal_flash.o(.bss) for .bss
    stm32f1xx_hal_flash.o(i.HAL_FLASH_Program_IT) refers to stm32f1xx_hal_flash.o(i.FLASH_Program_HalfWord) for FLASH_Program_HalfWord
    stm32f1xx_hal_flash.o(i.HAL_FLASH_Program_IT) refers to stm32f1xx_hal_flash.o(.bss) for .bss
    stm32f1xx_hal_flash_ex.o(i.FLASH_MassErase) refers to stm32f1xx_hal_flash.o(.bss) for pFlash
    stm32f1xx_hal_flash_ex.o(i.FLASH_OB_DisableWRP) refers to stm32f1xx_hal_flash.o(i.FLASH_WaitForLastOperation) for FLASH_WaitForLastOperation
    stm32f1xx_hal_flash_ex.o(i.FLASH_OB_DisableWRP) refers to stm32f1xx_hal_flash_ex.o(i.HAL_FLASHEx_OBErase) for HAL_FLASHEx_OBErase
    stm32f1xx_hal_flash_ex.o(i.FLASH_OB_DisableWRP) refers to stm32f1xx_hal_flash.o(.bss) for pFlash
    stm32f1xx_hal_flash_ex.o(i.FLASH_OB_EnableWRP) refers to stm32f1xx_hal_flash.o(i.FLASH_WaitForLastOperation) for FLASH_WaitForLastOperation
    stm32f1xx_hal_flash_ex.o(i.FLASH_OB_EnableWRP) refers to stm32f1xx_hal_flash_ex.o(i.HAL_FLASHEx_OBErase) for HAL_FLASHEx_OBErase
    stm32f1xx_hal_flash_ex.o(i.FLASH_OB_EnableWRP) refers to stm32f1xx_hal_flash.o(.bss) for pFlash
    stm32f1xx_hal_flash_ex.o(i.FLASH_OB_RDP_LevelConfig) refers to stm32f1xx_hal_flash.o(i.FLASH_WaitForLastOperation) for FLASH_WaitForLastOperation
    stm32f1xx_hal_flash_ex.o(i.FLASH_OB_RDP_LevelConfig) refers to stm32f1xx_hal_flash.o(.bss) for pFlash
    stm32f1xx_hal_flash_ex.o(i.FLASH_PageErase) refers to stm32f1xx_hal_flash.o(.bss) for pFlash
    stm32f1xx_hal_flash_ex.o(i.HAL_FLASHEx_Erase) refers to stm32f1xx_hal_flash.o(i.FLASH_WaitForLastOperation) for FLASH_WaitForLastOperation
    stm32f1xx_hal_flash_ex.o(i.HAL_FLASHEx_Erase) refers to stm32f1xx_hal_flash_ex.o(i.FLASH_MassErase) for FLASH_MassErase
    stm32f1xx_hal_flash_ex.o(i.HAL_FLASHEx_Erase) refers to stm32f1xx_hal_flash_ex.o(i.FLASH_PageErase) for FLASH_PageErase
    stm32f1xx_hal_flash_ex.o(i.HAL_FLASHEx_Erase) refers to stm32f1xx_hal_flash.o(.bss) for pFlash
    stm32f1xx_hal_flash_ex.o(i.HAL_FLASHEx_Erase_IT) refers to stm32f1xx_hal_flash_ex.o(i.FLASH_PageErase) for FLASH_PageErase
    stm32f1xx_hal_flash_ex.o(i.HAL_FLASHEx_Erase_IT) refers to stm32f1xx_hal_flash_ex.o(i.FLASH_MassErase) for FLASH_MassErase
    stm32f1xx_hal_flash_ex.o(i.HAL_FLASHEx_Erase_IT) refers to stm32f1xx_hal_flash.o(.bss) for pFlash
    stm32f1xx_hal_flash_ex.o(i.HAL_FLASHEx_OBErase) refers to stm32f1xx_hal_flash_ex.o(i.FLASH_OB_GetRDP) for FLASH_OB_GetRDP
    stm32f1xx_hal_flash_ex.o(i.HAL_FLASHEx_OBErase) refers to stm32f1xx_hal_flash.o(i.FLASH_WaitForLastOperation) for FLASH_WaitForLastOperation
    stm32f1xx_hal_flash_ex.o(i.HAL_FLASHEx_OBErase) refers to stm32f1xx_hal_flash_ex.o(i.FLASH_OB_RDP_LevelConfig) for FLASH_OB_RDP_LevelConfig
    stm32f1xx_hal_flash_ex.o(i.HAL_FLASHEx_OBErase) refers to stm32f1xx_hal_flash.o(.bss) for pFlash
    stm32f1xx_hal_flash_ex.o(i.HAL_FLASHEx_OBGetConfig) refers to stm32f1xx_hal_flash_ex.o(i.FLASH_OB_GetRDP) for FLASH_OB_GetRDP
    stm32f1xx_hal_flash_ex.o(i.HAL_FLASHEx_OBProgram) refers to stm32f1xx_hal_flash_ex.o(i.FLASH_OB_DisableWRP) for FLASH_OB_DisableWRP
    stm32f1xx_hal_flash_ex.o(i.HAL_FLASHEx_OBProgram) refers to stm32f1xx_hal_flash_ex.o(i.FLASH_OB_EnableWRP) for FLASH_OB_EnableWRP
    stm32f1xx_hal_flash_ex.o(i.HAL_FLASHEx_OBProgram) refers to stm32f1xx_hal_flash_ex.o(i.FLASH_OB_RDP_LevelConfig) for FLASH_OB_RDP_LevelConfig
    stm32f1xx_hal_flash_ex.o(i.HAL_FLASHEx_OBProgram) refers to stm32f1xx_hal_flash.o(i.FLASH_WaitForLastOperation) for FLASH_WaitForLastOperation
    stm32f1xx_hal_flash_ex.o(i.HAL_FLASHEx_OBProgram) refers to stm32f1xx_hal_flash.o(.bss) for pFlash
    system_stm32f1xx_1.o(i.SystemCoreClockUpdate) refers to system_stm32f1xx_1.o(.data) for .data
    system_stm32f1xx_1.o(i.SystemCoreClockUpdate) refers to system_stm32f1xx_1.o(.constdata) for .constdata
    __2snprintf.o(.text) refers to _printf_char_common.o(.text) for _printf_char_common
    __2snprintf.o(.text) refers to _sputc.o(.text) for _sputc
    __2snprintf.o(.text) refers to _snputc.o(.text) for _snputc
    noretval__2snprintf.o(.text) refers to _printf_char_common.o(.text) for _printf_char_common
    noretval__2snprintf.o(.text) refers to _sputc.o(.text) for _sputc
    noretval__2snprintf.o(.text) refers to _snputc.o(.text) for _snputc
    __printf.o(.text) refers to _printf_percent.o(.ARM.Collect$$_printf_percent$$00000000) for _printf_percent
    _printf_dec.o(.text) refers to _printf_intcommon.o(.text) for _printf_int_common
    __printf_flags.o(.text) refers to _printf_percent.o(.ARM.Collect$$_printf_percent$$00000000) for _printf_percent
    __printf_flags.o(.text) refers to __printf_flags.o(.constdata) for .constdata
    __printf_ss.o(.text) refers to _printf_percent.o(.ARM.Collect$$_printf_percent$$00000000) for _printf_percent
    __printf_flags_ss.o(.text) refers to _printf_percent.o(.ARM.Collect$$_printf_percent$$00000000) for _printf_percent
    __printf_flags_ss.o(.text) refers to __printf_flags_ss.o(.constdata) for .constdata
    __printf_wp.o(.text) refers to __printf_wp.o(i._is_digit) for _is_digit
    __printf_wp.o(.text) refers to _printf_percent.o(.ARM.Collect$$_printf_percent$$00000000) for _printf_percent
    __printf_flags_wp.o(.text) refers to __printf_wp.o(i._is_digit) for _is_digit
    __printf_flags_wp.o(.text) refers to _printf_percent.o(.ARM.Collect$$_printf_percent$$00000000) for _printf_percent
    __printf_flags_wp.o(.text) refers to __printf_flags_wp.o(.constdata) for .constdata
    __printf_ss_wp.o(.text) refers to __printf_wp.o(i._is_digit) for _is_digit
    __printf_ss_wp.o(.text) refers to _printf_percent.o(.ARM.Collect$$_printf_percent$$00000000) for _printf_percent
    __printf_flags_ss_wp.o(.text) refers to __printf_wp.o(i._is_digit) for _is_digit
    __printf_flags_ss_wp.o(.text) refers to _printf_percent.o(.ARM.Collect$$_printf_percent$$00000000) for _printf_percent
    __printf_flags_ss_wp.o(.text) refers to __printf_flags_ss_wp.o(.constdata) for .constdata
    _printf_d.o(.ARM.Collect$$_printf_percent$$00000009) refers (Weak) to _printf_dec.o(.text) for _printf_int_dec
    _printf_percent.o(.ARM.Collect$$_printf_percent$$00000000) refers (Special) to _printf_percent_end.o(.ARM.Collect$$_printf_percent$$00000017) for _printf_percent_end
    rt_memclr.o(.text) refers to rt_memclr_w.o(.text) for _memset_w
    __main.o(!!!main) refers to __rtentry.o(.ARM.Collect$$rtentry$$00000000) for __rt_entry
    d2f.o(x$fpl$d2f) refers (Special) to usenofp.o(x$fpl$usenofp) for __I$use$fp
    d2f.o(x$fpl$d2f) refers to fretinf.o(x$fpl$fretinf) for __fpl_fretinf
    d2f.o(x$fpl$d2f) refers to dnaninf.o(x$fpl$dnaninf) for __fpl_dnaninf
    daddsub_clz.o(x$fpl$dadd) refers (Special) to usenofp.o(x$fpl$usenofp) for __I$use$fp
    daddsub_clz.o(x$fpl$dadd) refers to daddsub_clz.o(x$fpl$dsub) for _dsub1
    daddsub_clz.o(x$fpl$dadd) refers to dretinf.o(x$fpl$dretinf) for __fpl_dretinf
    daddsub_clz.o(x$fpl$dadd) refers to dnaninf.o(x$fpl$dnaninf) for __fpl_dnaninf
    daddsub_clz.o(x$fpl$drsb) refers (Special) to usenofp.o(x$fpl$usenofp) for __I$use$fp
    daddsub_clz.o(x$fpl$drsb) refers to daddsub_clz.o(x$fpl$dadd) for _dadd1
    daddsub_clz.o(x$fpl$drsb) refers to daddsub_clz.o(x$fpl$dsub) for _dsub1
    daddsub_clz.o(x$fpl$dsub) refers (Special) to usenofp.o(x$fpl$usenofp) for __I$use$fp
    daddsub_clz.o(x$fpl$dsub) refers to daddsub_clz.o(x$fpl$dadd) for _dadd1
    daddsub_clz.o(x$fpl$dsub) refers to dnaninf.o(x$fpl$dnaninf) for __fpl_dnaninf
    ddiv.o(x$fpl$drdiv) refers (Special) to usenofp.o(x$fpl$usenofp) for __I$use$fp
    ddiv.o(x$fpl$drdiv) refers to ddiv.o(x$fpl$ddiv) for ddiv_entry
    ddiv.o(x$fpl$ddiv) refers (Special) to usenofp.o(x$fpl$usenofp) for __I$use$fp
    ddiv.o(x$fpl$ddiv) refers to dretinf.o(x$fpl$dretinf) for __fpl_dretinf
    ddiv.o(x$fpl$ddiv) refers to dnaninf.o(x$fpl$dnaninf) for __fpl_dnaninf
    dfix.o(x$fpl$dfix) refers (Special) to usenofp.o(x$fpl$usenofp) for __I$use$fp
    dfix.o(x$fpl$dfix) refers to dnaninf.o(x$fpl$dnaninf) for __fpl_dnaninf
    dfix.o(x$fpl$dfixr) refers (Special) to usenofp.o(x$fpl$usenofp) for __I$use$fp
    dfix.o(x$fpl$dfixr) refers to dnaninf.o(x$fpl$dnaninf) for __fpl_dnaninf
    dflt_clz.o(x$fpl$dfltu) refers (Special) to usenofp.o(x$fpl$usenofp) for __I$use$fp
    dflt_clz.o(x$fpl$dflt) refers (Special) to usenofp.o(x$fpl$usenofp) for __I$use$fp
    dflt_clz.o(x$fpl$dfltn) refers (Special) to usenofp.o(x$fpl$usenofp) for __I$use$fp
    dleqf.o(x$fpl$dleqf) refers (Special) to usenofp.o(x$fpl$usenofp) for __I$use$fp
    dleqf.o(x$fpl$dleqf) refers to dnaninf.o(x$fpl$dnaninf) for __fpl_dnaninf
    dleqf.o(x$fpl$dleqf) refers to dcmpi.o(x$fpl$dcmpinf) for __fpl_dcmp_Inf
    dmul.o(x$fpl$dmul) refers (Special) to usenofp.o(x$fpl$usenofp) for __I$use$fp
    dmul.o(x$fpl$dmul) refers to dretinf.o(x$fpl$dretinf) for __fpl_dretinf
    dmul.o(x$fpl$dmul) refers to dnaninf.o(x$fpl$dnaninf) for __fpl_dnaninf
    faddsub_clz.o(x$fpl$fadd) refers (Special) to usenofp.o(x$fpl$usenofp) for __I$use$fp
    faddsub_clz.o(x$fpl$fadd) refers to faddsub_clz.o(x$fpl$fsub) for _fsub1
    faddsub_clz.o(x$fpl$fadd) refers to fretinf.o(x$fpl$fretinf) for __fpl_fretinf
    faddsub_clz.o(x$fpl$fadd) refers to fnaninf.o(x$fpl$fnaninf) for __fpl_fnaninf
    faddsub_clz.o(x$fpl$frsb) refers (Special) to usenofp.o(x$fpl$usenofp) for __I$use$fp
    faddsub_clz.o(x$fpl$frsb) refers to faddsub_clz.o(x$fpl$fadd) for _fadd1
    faddsub_clz.o(x$fpl$frsb) refers to faddsub_clz.o(x$fpl$fsub) for _fsub1
    faddsub_clz.o(x$fpl$fsub) refers (Special) to usenofp.o(x$fpl$usenofp) for __I$use$fp
    faddsub_clz.o(x$fpl$fsub) refers to faddsub_clz.o(x$fpl$fadd) for _fadd1
    faddsub_clz.o(x$fpl$fsub) refers to fnaninf.o(x$fpl$fnaninf) for __fpl_fnaninf
    fflt_clz.o(x$fpl$ffltu) refers (Special) to usenofp.o(x$fpl$usenofp) for __I$use$fp
    fflt_clz.o(x$fpl$fflt) refers (Special) to usenofp.o(x$fpl$usenofp) for __I$use$fp
    fflt_clz.o(x$fpl$ffltn) refers (Special) to usenofp.o(x$fpl$usenofp) for __I$use$fp
    atan2.o(i.__softfp_atan2) refers (Special) to usenofp.o(x$fpl$usenofp) for __I$use$fp
    atan2.o(i.__softfp_atan2) refers to atan2.o(i.atan2) for atan2
    atan2.o(i.atan2) refers (Special) to usenofp.o(x$fpl$usenofp) for __I$use$fp
    atan2.o(i.atan2) refers to dunder.o(i.__mathlib_dbl_infnan2) for __mathlib_dbl_infnan2
    atan2.o(i.atan2) refers to atan.o(i.atan) for atan
    atan2.o(i.atan2) refers to ddiv.o(x$fpl$ddiv) for __aeabi_ddiv
    atan2.o(i.atan2) refers to daddsub_clz.o(x$fpl$dsub) for __aeabi_dsub
    atan2.o(i.atan2) refers to deqf.o(x$fpl$deqf) for __aeabi_cdcmpeq
    atan2.o(i.atan2) refers to _rserrno.o(.text) for __set_errno
    atan2.o(i.atan2) refers to daddsub_clz.o(x$fpl$drsb) for __aeabi_drsub
    atan2.o(i.atan2) refers to qnan.o(.constdata) for __mathlib_zero
    atan2_x.o(i.____softfp_atan2$lsc) refers (Special) to usenofp.o(x$fpl$usenofp) for __I$use$fp
    atan2_x.o(i.____softfp_atan2$lsc) refers to atan2_x.o(i.__atan2$lsc) for __atan2$lsc
    atan2_x.o(i.__atan2$lsc) refers (Special) to usenofp.o(x$fpl$usenofp) for __I$use$fp
    atan2_x.o(i.__atan2$lsc) refers to dunder.o(i.__mathlib_dbl_infnan2) for __mathlib_dbl_infnan2
    atan2_x.o(i.__atan2$lsc) refers to atan.o(i.atan) for atan
    atan2_x.o(i.__atan2$lsc) refers to _rserrno.o(.text) for __set_errno
    atan2_x.o(i.__atan2$lsc) refers to ddiv.o(x$fpl$ddiv) for __aeabi_ddiv
    atan2_x.o(i.__atan2$lsc) refers to daddsub_clz.o(x$fpl$dsub) for __aeabi_dsub
    atan2_x.o(i.__atan2$lsc) refers to deqf.o(x$fpl$deqf) for __aeabi_cdcmpeq
    atan2_x.o(i.__atan2$lsc) refers to daddsub_clz.o(x$fpl$drsb) for __aeabi_drsub
    atan2_x.o(i.__atan2$lsc) refers to qnan.o(.constdata) for __mathlib_zero
    __rtentry.o(.ARM.Collect$$rtentry$$00000000) refers (Special) to __rtentry2.o(.ARM.Collect$$rtentry$$0000000A) for __rt_entry_li
    __rtentry.o(.ARM.Collect$$rtentry$$00000000) refers (Special) to __rtentry2.o(.ARM.Collect$$rtentry$$0000000D) for __rt_entry_main
    __rtentry.o(.ARM.Collect$$rtentry$$00000000) refers (Special) to __rtentry2.o(.ARM.Collect$$rtentry$$0000000C) for __rt_entry_postli_1
    __rtentry.o(.ARM.Collect$$rtentry$$00000000) refers (Special) to __rtentry2.o(.ARM.Collect$$rtentry$$00000009) for __rt_entry_postsh_1
    __rtentry.o(.ARM.Collect$$rtentry$$00000000) refers (Special) to __rtentry2.o(.ARM.Collect$$rtentry$$00000002) for __rt_entry_presh_1
    __rtentry.o(.ARM.Collect$$rtentry$$00000000) refers (Special) to __rtentry4.o(.ARM.Collect$$rtentry$$00000004) for __rt_entry_sh
    _rserrno.o(.text) refers to rt_errno_addr_intlibspace.o(.text) for __aeabi_errno_addr
    _printf_char_common.o(.text) refers to __printf.o(.text) for __printf
    dcmpi.o(x$fpl$dcmpinf) refers (Special) to usenofp.o(x$fpl$usenofp) for __I$use$fp
    deqf.o(x$fpl$deqf) refers (Special) to usenofp.o(x$fpl$usenofp) for __I$use$fp
    deqf.o(x$fpl$deqf) refers to dnaninf.o(x$fpl$dnaninf) for __fpl_dnaninf
    deqf.o(x$fpl$deqf) refers to dcmpi.o(x$fpl$dcmpinf) for __fpl_dcmp_Inf
    dnaninf.o(x$fpl$dnaninf) refers (Special) to usenofp.o(x$fpl$usenofp) for __I$use$fp
    dretinf.o(x$fpl$dretinf) refers (Special) to usenofp.o(x$fpl$usenofp) for __I$use$fp
    fnaninf.o(x$fpl$fnaninf) refers (Special) to usenofp.o(x$fpl$usenofp) for __I$use$fp
    fretinf.o(x$fpl$fretinf) refers (Special) to usenofp.o(x$fpl$usenofp) for __I$use$fp
    atan.o(i.__softfp_atan) refers (Special) to usenofp.o(x$fpl$usenofp) for __I$use$fp
    atan.o(i.__softfp_atan) refers to atan.o(i.atan) for atan
    atan.o(i.atan) refers (Special) to usenofp.o(x$fpl$usenofp) for __I$use$fp
    atan.o(i.atan) refers to dunder.o(i.__mathlib_dbl_infnan) for __mathlib_dbl_infnan
    atan.o(i.atan) refers to fpclassify.o(i.__ARM_fpclassify) for __ARM_fpclassify
    atan.o(i.atan) refers to dunder.o(i.__mathlib_dbl_underflow) for __mathlib_dbl_underflow
    atan.o(i.atan) refers to daddsub_clz.o(x$fpl$dadd) for __aeabi_dadd
    atan.o(i.atan) refers to scalbn.o(x$fpl$scalbn) for __ARM_scalbn
    atan.o(i.atan) refers to daddsub_clz.o(x$fpl$dsub) for __aeabi_dsub
    atan.o(i.atan) refers to ddiv.o(x$fpl$ddiv) for __aeabi_ddiv
    atan.o(i.atan) refers to dmul.o(x$fpl$dmul) for __aeabi_dmul
    atan.o(i.atan) refers to poly.o(i.__kernel_poly) for __kernel_poly
    atan.o(i.atan) refers to daddsub_clz.o(x$fpl$drsb) for __aeabi_drsub
    atan.o(i.atan) refers to atan.o(.constdata) for .constdata
    atan.o(.constdata) refers (Special) to usenofp.o(x$fpl$usenofp) for __I$use$fp
    atan_x.o(i.____softfp_atan$lsc) refers (Special) to usenofp.o(x$fpl$usenofp) for __I$use$fp
    atan_x.o(i.____softfp_atan$lsc) refers to atan_x.o(i.__atan$lsc) for __atan$lsc
    atan_x.o(i.__atan$lsc) refers (Special) to usenofp.o(x$fpl$usenofp) for __I$use$fp
    atan_x.o(i.__atan$lsc) refers to dunder.o(i.__mathlib_dbl_infnan) for __mathlib_dbl_infnan
    atan_x.o(i.__atan$lsc) refers to daddsub_clz.o(x$fpl$dadd) for __aeabi_dadd
    atan_x.o(i.__atan$lsc) refers to scalbn.o(x$fpl$scalbn) for __ARM_scalbn
    atan_x.o(i.__atan$lsc) refers to daddsub_clz.o(x$fpl$dsub) for __aeabi_dsub
    atan_x.o(i.__atan$lsc) refers to ddiv.o(x$fpl$ddiv) for __aeabi_ddiv
    atan_x.o(i.__atan$lsc) refers to dmul.o(x$fpl$dmul) for __aeabi_dmul
    atan_x.o(i.__atan$lsc) refers to poly.o(i.__kernel_poly) for __kernel_poly
    atan_x.o(i.__atan$lsc) refers to daddsub_clz.o(x$fpl$drsb) for __aeabi_drsub
    atan_x.o(i.__atan$lsc) refers to atan_x.o(.constdata) for .constdata
    atan_x.o(.constdata) refers (Special) to usenofp.o(x$fpl$usenofp) for __I$use$fp
    dunder.o(i.__mathlib_dbl_divzero) refers to ddiv.o(x$fpl$ddiv) for __aeabi_ddiv
    dunder.o(i.__mathlib_dbl_infnan) refers to scalbn.o(x$fpl$scalbn) for __ARM_scalbn
    dunder.o(i.__mathlib_dbl_infnan2) refers to daddsub_clz.o(x$fpl$dadd) for __aeabi_dadd
    dunder.o(i.__mathlib_dbl_invalid) refers to ddiv.o(x$fpl$ddiv) for __aeabi_ddiv
    dunder.o(i.__mathlib_dbl_overflow) refers to scalbn.o(x$fpl$scalbn) for __ARM_scalbn
    dunder.o(i.__mathlib_dbl_posinfnan) refers to dmul.o(x$fpl$dmul) for __aeabi_dmul
    dunder.o(i.__mathlib_dbl_underflow) refers to scalbn.o(x$fpl$scalbn) for __ARM_scalbn
    qnan.o(.constdata) refers (Special) to usenofp.o(x$fpl$usenofp) for __I$use$fp
    __rtentry2.o(.ARM.Collect$$rtentry$$00000008) refers to boardinit2.o(.text) for _platform_post_stackheap_init
    __rtentry2.o(.ARM.Collect$$rtentry$$0000000A) refers to libinit.o(.ARM.Collect$$libinit$$00000000) for __rt_lib_init
    __rtentry2.o(.ARM.Collect$$rtentry$$0000000B) refers to boardinit3.o(.text) for _platform_post_lib_init
    __rtentry2.o(.ARM.Collect$$rtentry$$0000000D) refers to main.o(i.main) for main
    __rtentry2.o(.ARM.Collect$$rtentry$$0000000D) refers to exit.o(.text) for exit
    __rtentry2.o(.ARM.exidx) refers to __rtentry2.o(.ARM.Collect$$rtentry$$00000001) for .ARM.Collect$$rtentry$$00000001
    __rtentry2.o(.ARM.exidx) refers to __rtentry2.o(.ARM.Collect$$rtentry$$00000008) for .ARM.Collect$$rtentry$$00000008
    __rtentry2.o(.ARM.exidx) refers to __rtentry2.o(.ARM.Collect$$rtentry$$0000000A) for .ARM.Collect$$rtentry$$0000000A
    __rtentry2.o(.ARM.exidx) refers to __rtentry2.o(.ARM.Collect$$rtentry$$0000000B) for .ARM.Collect$$rtentry$$0000000B
    __rtentry2.o(.ARM.exidx) refers to __rtentry2.o(.ARM.Collect$$rtentry$$0000000D) for .ARM.Collect$$rtentry$$0000000D
    __rtentry4.o(.ARM.Collect$$rtentry$$00000004) refers to sys_stackheap_outer.o(.text) for __user_setup_stackheap
    __rtentry4.o(.ARM.exidx) refers to __rtentry4.o(.ARM.Collect$$rtentry$$00000004) for .ARM.Collect$$rtentry$$00000004
    rt_errno_addr.o(.text) refers to rt_errno_addr.o(.bss) for __aeabi_errno_addr_data
    rt_errno_addr_intlibspace.o(.text) refers to libspace.o(.bss) for __libspace_start
    scalbn.o(x$fpl$scalbn) refers (Special) to usenofp.o(x$fpl$usenofp) for __I$use$fp
    scalbn.o(x$fpl$scalbn) refers to dcheck1.o(x$fpl$dcheck1) for __fpl_dcheck_NaN1
    fpclassify.o(i.__ARM_fpclassify) refers (Special) to usenofp.o(x$fpl$usenofp) for __I$use$fp
    poly.o(i.__kernel_poly) refers (Special) to usenofp.o(x$fpl$usenofp) for __I$use$fp
    poly.o(i.__kernel_poly) refers to dmul.o(x$fpl$dmul) for __aeabi_dmul
    poly.o(i.__kernel_poly) refers to daddsub_clz.o(x$fpl$dadd) for __aeabi_dadd
    libspace.o(.text) refers to libspace.o(.bss) for __libspace_start
    sys_stackheap_outer.o(.text) refers to libspace.o(.text) for __user_perproc_libspace
    sys_stackheap_outer.o(.text) refers to startup_stm32f103xe.o(.text) for __user_initial_stackheap
    exit.o(.text) refers to rtexit.o(.ARM.Collect$$rtexit$$00000000) for __rt_exit
    libinit.o(.ARM.Collect$$libinit$$00000000) refers (Special) to libinit2.o(.ARM.Collect$$libinit$$0000002E) for __rt_lib_init_alloca_1
    libinit.o(.ARM.Collect$$libinit$$00000000) refers (Special) to libinit2.o(.ARM.Collect$$libinit$$0000002C) for __rt_lib_init_argv_1
    libinit.o(.ARM.Collect$$libinit$$00000000) refers (Special) to libinit2.o(.ARM.Collect$$libinit$$0000001B) for __rt_lib_init_atexit_1
    libinit.o(.ARM.Collect$$libinit$$00000000) refers (Special) to libinit2.o(.ARM.Collect$$libinit$$00000021) for __rt_lib_init_clock_1
    libinit.o(.ARM.Collect$$libinit$$00000000) refers (Special) to libinit2.o(.ARM.Collect$$libinit$$00000032) for __rt_lib_init_cpp_1
    libinit.o(.ARM.Collect$$libinit$$00000000) refers (Special) to libinit2.o(.ARM.Collect$$libinit$$00000030) for __rt_lib_init_exceptions_1
    libinit.o(.ARM.Collect$$libinit$$00000000) refers (Special) to libinit2.o(.ARM.Collect$$libinit$$00000002) for __rt_lib_init_fp_1
    libinit.o(.ARM.Collect$$libinit$$00000000) refers (Special) to libinit2.o(.ARM.Collect$$libinit$$0000001F) for __rt_lib_init_fp_trap_1
    libinit.o(.ARM.Collect$$libinit$$00000000) refers (Special) to libinit2.o(.ARM.Collect$$libinit$$00000023) for __rt_lib_init_getenv_1
    libinit.o(.ARM.Collect$$libinit$$00000000) refers (Special) to libinit2.o(.ARM.Collect$$libinit$$0000000A) for __rt_lib_init_heap_1
    libinit.o(.ARM.Collect$$libinit$$00000000) refers (Special) to libinit2.o(.ARM.Collect$$libinit$$00000011) for __rt_lib_init_lc_collate_1
    libinit.o(.ARM.Collect$$libinit$$00000000) refers (Special) to libinit2.o(.ARM.Collect$$libinit$$00000013) for __rt_lib_init_lc_ctype_1
    libinit.o(.ARM.Collect$$libinit$$00000000) refers (Special) to libinit2.o(.ARM.Collect$$libinit$$00000015) for __rt_lib_init_lc_monetary_1
    libinit.o(.ARM.Collect$$libinit$$00000000) refers (Special) to libinit2.o(.ARM.Collect$$libinit$$00000017) for __rt_lib_init_lc_numeric_1
    libinit.o(.ARM.Collect$$libinit$$00000000) refers (Special) to libinit2.o(.ARM.Collect$$libinit$$00000019) for __rt_lib_init_lc_time_1
    libinit.o(.ARM.Collect$$libinit$$00000000) refers (Special) to libinit2.o(.ARM.Collect$$libinit$$00000004) for __rt_lib_init_preinit_1
    libinit.o(.ARM.Collect$$libinit$$00000000) refers (Special) to libinit2.o(.ARM.Collect$$libinit$$0000000E) for __rt_lib_init_rand_1
    libinit.o(.ARM.Collect$$libinit$$00000000) refers (Special) to libinit2.o(.ARM.Collect$$libinit$$00000033) for __rt_lib_init_return
    libinit.o(.ARM.Collect$$libinit$$00000000) refers (Special) to libinit2.o(.ARM.Collect$$libinit$$0000001D) for __rt_lib_init_signal_1
    libinit.o(.ARM.Collect$$libinit$$00000000) refers (Special) to libinit2.o(.ARM.Collect$$libinit$$00000025) for __rt_lib_init_stdio_1
    libinit.o(.ARM.Collect$$libinit$$00000000) refers (Special) to libinit2.o(.ARM.Collect$$libinit$$0000000C) for __rt_lib_init_user_alloc_1
    dcheck1.o(x$fpl$dcheck1) refers (Special) to usenofp.o(x$fpl$usenofp) for __I$use$fp
    dcheck1.o(x$fpl$dcheck1) refers to retnan.o(x$fpl$retnan) for __fpl_return_NaN
    rtexit.o(.ARM.Collect$$rtexit$$00000000) refers (Special) to rtexit2.o(.ARM.Collect$$rtexit$$00000004) for __rt_exit_exit
    rtexit.o(.ARM.Collect$$rtexit$$00000000) refers (Special) to rtexit2.o(.ARM.Collect$$rtexit$$00000003) for __rt_exit_ls
    rtexit.o(.ARM.Collect$$rtexit$$00000000) refers (Special) to rtexit2.o(.ARM.Collect$$rtexit$$00000002) for __rt_exit_prels_1
    rtexit.o(.ARM.exidx) refers (Special) to rtexit2.o(.ARM.Collect$$rtexit$$00000004) for __rt_exit_exit
    rtexit.o(.ARM.exidx) refers (Special) to rtexit2.o(.ARM.Collect$$rtexit$$00000003) for __rt_exit_ls
    rtexit.o(.ARM.exidx) refers (Special) to rtexit2.o(.ARM.Collect$$rtexit$$00000002) for __rt_exit_prels_1
    rtexit.o(.ARM.exidx) refers to rtexit.o(.ARM.Collect$$rtexit$$00000000) for .ARM.Collect$$rtexit$$00000000
    libinit2.o(.ARM.Collect$$libinit$$00000010) refers to libinit2.o(.ARM.Collect$$libinit$$0000000F) for .ARM.Collect$$libinit$$0000000F
    libinit2.o(.ARM.Collect$$libinit$$00000012) refers to libinit2.o(.ARM.Collect$$libinit$$0000000F) for .ARM.Collect$$libinit$$0000000F
    libinit2.o(.ARM.Collect$$libinit$$00000014) refers to libinit2.o(.ARM.Collect$$libinit$$0000000F) for .ARM.Collect$$libinit$$0000000F
    libinit2.o(.ARM.Collect$$libinit$$00000016) refers to libinit2.o(.ARM.Collect$$libinit$$0000000F) for .ARM.Collect$$libinit$$0000000F
    libinit2.o(.ARM.Collect$$libinit$$00000018) refers to libinit2.o(.ARM.Collect$$libinit$$0000000F) for .ARM.Collect$$libinit$$0000000F
    libinit2.o(.ARM.Collect$$libinit$$00000026) refers to argv_veneer.o(.emb_text) for __ARM_argv_veneer
    libinit2.o(.ARM.Collect$$libinit$$00000027) refers to argv_veneer.o(.emb_text) for __ARM_argv_veneer
    retnan.o(x$fpl$retnan) refers (Special) to usenofp.o(x$fpl$usenofp) for __I$use$fp
    retnan.o(x$fpl$retnan) refers to trapv.o(x$fpl$trapveneer) for __fpl_cmpreturn
    rtexit2.o(.ARM.Collect$$rtexit$$00000003) refers to libshutdown.o(.ARM.Collect$$libshutdown$$00000000) for __rt_lib_shutdown
    rtexit2.o(.ARM.Collect$$rtexit$$00000004) refers to sys_exit.o(.text) for _sys_exit
    rtexit2.o(.ARM.exidx) refers to rtexit2.o(.ARM.Collect$$rtexit$$00000001) for .ARM.Collect$$rtexit$$00000001
    rtexit2.o(.ARM.exidx) refers to rtexit2.o(.ARM.Collect$$rtexit$$00000003) for .ARM.Collect$$rtexit$$00000003
    rtexit2.o(.ARM.exidx) refers to rtexit2.o(.ARM.Collect$$rtexit$$00000004) for .ARM.Collect$$rtexit$$00000004
    argv_veneer.o(.emb_text) refers to no_argv.o(.text) for __ARM_get_argv
    trapv.o(x$fpl$trapveneer) refers (Special) to usenofp.o(x$fpl$usenofp) for __I$use$fp
    sys_exit.o(.text) refers (Special) to use_no_semi.o(.text) for __I$use$semihosting
    sys_exit.o(.text) refers (Special) to indicate_semi.o(.text) for __semihosting_library_function
    _get_argv_nomalloc.o(.text) refers (Special) to hrguard.o(.text) for __heap_region$guard
    _get_argv_nomalloc.o(.text) refers to defsig_rtmem_outer.o(.text) for __rt_SIGRTMEM
    _get_argv_nomalloc.o(.text) refers to sys_command.o(.text) for _sys_command_string
    libshutdown.o(.ARM.Collect$$libshutdown$$00000000) refers (Special) to libshutdown2.o(.ARM.Collect$$libshutdown$$00000004) for __rt_lib_shutdown_cpp_1
    libshutdown.o(.ARM.Collect$$libshutdown$$00000000) refers (Special) to libshutdown2.o(.ARM.Collect$$libshutdown$$00000002) for __rt_lib_shutdown_fini_1
    libshutdown.o(.ARM.Collect$$libshutdown$$00000000) refers (Special) to libshutdown2.o(.ARM.Collect$$libshutdown$$00000009) for __rt_lib_shutdown_fp_trap_1
    libshutdown.o(.ARM.Collect$$libshutdown$$00000000) refers (Special) to libshutdown2.o(.ARM.Collect$$libshutdown$$00000011) for __rt_lib_shutdown_heap_1
    libshutdown.o(.ARM.Collect$$libshutdown$$00000000) refers (Special) to libshutdown2.o(.ARM.Collect$$libshutdown$$00000012) for __rt_lib_shutdown_return
    libshutdown.o(.ARM.Collect$$libshutdown$$00000000) refers (Special) to libshutdown2.o(.ARM.Collect$$libshutdown$$0000000C) for __rt_lib_shutdown_signal_1
    libshutdown.o(.ARM.Collect$$libshutdown$$00000000) refers (Special) to libshutdown2.o(.ARM.Collect$$libshutdown$$00000006) for __rt_lib_shutdown_stdio_1
    libshutdown.o(.ARM.Collect$$libshutdown$$00000000) refers (Special) to libshutdown2.o(.ARM.Collect$$libshutdown$$0000000E) for __rt_lib_shutdown_user_alloc_1
    sys_command.o(.text) refers (Special) to use_no_semi.o(.text) for __I$use$semihosting
    sys_command.o(.text) refers (Special) to indicate_semi.o(.text) for __semihosting_library_function
    defsig_rtmem_outer.o(.text) refers to defsig_rtmem_inner.o(.text) for __rt_SIGRTMEM_inner
    defsig_rtmem_outer.o(.text) refers to defsig_exit.o(.text) for __sig_exit
    defsig_rtmem_formal.o(.text) refers to rt_raise.o(.text) for __rt_raise
    rt_raise.o(.text) refers to __raise.o(.text) for __raise
    rt_raise.o(.text) refers to sys_exit.o(.text) for _sys_exit
    defsig_exit.o(.text) refers to sys_exit.o(.text) for _sys_exit
    defsig_rtmem_inner.o(.text) refers to defsig_general.o(.text) for __default_signal_display
    __raise.o(.text) refers to defsig.o(CL$$defsig) for __default_signal_handler
    defsig_general.o(.text) refers to sys_wrch.o(.text) for _ttywrch
    sys_wrch.o(.text) refers (Special) to use_no_semi.o(.text) for __I$use$semihosting
    sys_wrch.o(.text) refers (Special) to indicate_semi.o(.text) for __semihosting_library_function
    defsig.o(CL$$defsig) refers to defsig_rtmem_inner.o(.text) for __rt_SIGRTMEM_inner
    defsig_abrt_inner.o(.text) refers to defsig_general.o(.text) for __default_signal_display
    defsig_fpe_inner.o(.text) refers to defsig_general.o(.text) for __default_signal_display
    defsig_rtred_inner.o(.text) refers to defsig_general.o(.text) for __default_signal_display
    defsig_stak_inner.o(.text) refers to defsig_general.o(.text) for __default_signal_display
    defsig_pvfn_inner.o(.text) refers to defsig_general.o(.text) for __default_signal_display
    defsig_cppl_inner.o(.text) refers to defsig_general.o(.text) for __default_signal_display
    defsig_segv_inner.o(.text) refers to defsig_general.o(.text) for __default_signal_display
    defsig_other.o(.text) refers to defsig_general.o(.text) for __default_signal_display


==============================================================================

Removing Unused input sections from the image.

    Removing ccgraphic_arc.o(i.CCGraphic_drawfilled_arc), (770 bytes).
    Removing ccgraphic_device_adapter.o(.rev16_text), (4 bytes).
    Removing ccgraphic_device_adapter.o(.revsh_text), (4 bytes).
    Removing ccgraphic_device_adapter.o(.rrx_text), (6 bytes).
    Removing ccgraphic_device_adapter.o(i.__device_delay), (4 bytes).
    Removing ccgraphic_device_adapter.o(i.__device_delayclock_enabled), (28 bytes).
    Removing ccgraphic_device_adapter.o(i.__device_usdelay), (60 bytes).
    Removing ccgraphic_device_adapter.o(.data), (4 bytes).
    Removing ccgraphic_device_oled_adapter.o(.rev16_text), (4 bytes).
    Removing ccgraphic_device_oled_adapter.o(.revsh_text), (4 bytes).
    Removing ccgraphic_device_oled_adapter.o(.rrx_text), (6 bytes).
    Removing ccgraphic_menuitem.o(i.CCGraphic_MenuItem_register_menuItem), (8 bytes).
    Removing ccgraphic_size.o(i.CCGraphicWidget_initSize), (6 bytes).
    Removing ccgraphic_textitem.o(i.CCGraphicWidget_AsciiTextItem_on_append_point), (4 bytes).
    Removing ccgraphic_triangle.o(i.CCGraphic_draw_triangle), (74 bytes).
    Removing ccgraphic_utils.o(i.max_int16), (8 bytes).
    Removing ccgraphic_utils.o(i.max_uint8), (8 bytes).
    Removing ccgraphic_utils.o(i.min_uint8), (8 bytes).
    Removing ccgraphic_utils.o(i.swap_uint16), (26 bytes).
    Removing ccgraphic_utils.o(i.swap_uint8), (26 bytes).
    Removing gpio.o(.rev16_text), (4 bytes).
    Removing gpio.o(.revsh_text), (4 bytes).
    Removing gpio.o(.rrx_text), (6 bytes).
    Removing graphic_test_widget.o(.rev16_text), (4 bytes).
    Removing graphic_test_widget.o(.revsh_text), (4 bytes).
    Removing graphic_test_widget.o(.rrx_text), (6 bytes).
    Removing graphoc_test_components.o(.rev16_text), (4 bytes).
    Removing graphoc_test_components.o(.revsh_text), (4 bytes).
    Removing graphoc_test_components.o(.rrx_text), (6 bytes).
    Removing hard_iic.o(.rev16_text), (4 bytes).
    Removing hard_iic.o(.revsh_text), (4 bytes).
    Removing hard_iic.o(.rrx_text), (6 bytes).
    Removing hard_spi.o(.rev16_text), (4 bytes).
    Removing hard_spi.o(.revsh_text), (4 bytes).
    Removing hard_spi.o(.rrx_text), (6 bytes).
    Removing main.o(.rev16_text), (4 bytes).
    Removing main.o(.revsh_text), (4 bytes).
    Removing main.o(.rrx_text), (6 bytes).
    Removing main.o(i.Error_Handler), (4 bytes).
    Removing oled_base_driver_ssd1309.o(.rev16_text), (4 bytes).
    Removing oled_base_driver_ssd1309.o(.revsh_text), (4 bytes).
    Removing oled_base_driver_ssd1309.o(.rrx_text), (6 bytes).
    Removing oled_base_driver_ssd1309.o(.data), (23 bytes).
    Removing oled_test.o(.rev16_text), (4 bytes).
    Removing oled_test.o(.revsh_text), (4 bytes).
    Removing oled_test.o(.rrx_text), (6 bytes).
    Removing oled_test.o(i.test_set_pixel), (34 bytes).
    Removing oled_test_soft_spi.o(.rev16_text), (4 bytes).
    Removing oled_test_soft_spi.o(.revsh_text), (4 bytes).
    Removing oled_test_soft_spi.o(.rrx_text), (6 bytes).
    Removing simple_text.o(i.__pvt_set_up), (64 bytes).
    Removing simple_text.o(i.set_newline_text), (36 bytes).
    Removing simple_text.o(i.set_simple_text), (36 bytes).
    Removing simple_text.o(.bss), (20 bytes).
    Removing simple_text.o(.data), (1 bytes).
    Removing soft_iic.o(.rev16_text), (4 bytes).
    Removing soft_iic.o(.revsh_text), (4 bytes).
    Removing soft_iic.o(.rrx_text), (6 bytes).
    Removing soft_spi.o(.rev16_text), (4 bytes).
    Removing soft_spi.o(.revsh_text), (4 bytes).
    Removing soft_spi.o(.rrx_text), (6 bytes).
    Removing soft_spi_fast_setup.o(.rev16_text), (4 bytes).
    Removing soft_spi_fast_setup.o(.revsh_text), (4 bytes).
    Removing soft_spi_fast_setup.o(.rrx_text), (6 bytes).
    Removing stm32f1xx_hal_msp.o(.rev16_text), (4 bytes).
    Removing stm32f1xx_hal_msp.o(.revsh_text), (4 bytes).
    Removing stm32f1xx_hal_msp.o(.rrx_text), (6 bytes).
    Removing stm32f1xx_it.o(.rev16_text), (4 bytes).
    Removing stm32f1xx_it.o(.revsh_text), (4 bytes).
    Removing stm32f1xx_it.o(.rrx_text), (6 bytes).
    Removing test_all.o(.rev16_text), (4 bytes).
    Removing test_all.o(.revsh_text), (4 bytes).
    Removing test_all.o(.rrx_text), (6 bytes).
    Removing stm32f1xx_hal_gpio_ex.o(.rev16_text), (4 bytes).
    Removing stm32f1xx_hal_gpio_ex.o(.revsh_text), (4 bytes).
    Removing stm32f1xx_hal_gpio_ex.o(.rrx_text), (6 bytes).
    Removing stm32f1xx_hal_gpio_ex.o(i.HAL_GPIOEx_ConfigEventout), (20 bytes).
    Removing stm32f1xx_hal_gpio_ex.o(i.HAL_GPIOEx_DisableEventout), (16 bytes).
    Removing stm32f1xx_hal_gpio_ex.o(i.HAL_GPIOEx_EnableEventout), (16 bytes).
    Removing stm32f1xx_hal_tim.o(.rev16_text), (4 bytes).
    Removing stm32f1xx_hal_tim.o(.revsh_text), (4 bytes).
    Removing stm32f1xx_hal_tim.o(.rrx_text), (6 bytes).
    Removing stm32f1xx_hal_tim_ex.o(.rev16_text), (4 bytes).
    Removing stm32f1xx_hal_tim_ex.o(.revsh_text), (4 bytes).
    Removing stm32f1xx_hal_tim_ex.o(.rrx_text), (6 bytes).
    Removing stm32f1xx_hal.o(.rev16_text), (4 bytes).
    Removing stm32f1xx_hal.o(.revsh_text), (4 bytes).
    Removing stm32f1xx_hal.o(.rrx_text), (6 bytes).
    Removing stm32f1xx_hal.o(i.HAL_DBGMCU_DisableDBGSleepMode), (16 bytes).
    Removing stm32f1xx_hal.o(i.HAL_DBGMCU_DisableDBGStandbyMode), (16 bytes).
    Removing stm32f1xx_hal.o(i.HAL_DBGMCU_DisableDBGStopMode), (16 bytes).
    Removing stm32f1xx_hal.o(i.HAL_DBGMCU_EnableDBGSleepMode), (16 bytes).
    Removing stm32f1xx_hal.o(i.HAL_DBGMCU_EnableDBGStandbyMode), (16 bytes).
    Removing stm32f1xx_hal.o(i.HAL_DBGMCU_EnableDBGStopMode), (16 bytes).
    Removing stm32f1xx_hal.o(i.HAL_DeInit), (32 bytes).
    Removing stm32f1xx_hal.o(i.HAL_GetDEVID), (16 bytes).
    Removing stm32f1xx_hal.o(i.HAL_GetHalVersion), (8 bytes).
    Removing stm32f1xx_hal.o(i.HAL_GetREVID), (12 bytes).
    Removing stm32f1xx_hal.o(i.HAL_GetTickFreq), (12 bytes).
    Removing stm32f1xx_hal.o(i.HAL_GetTickPrio), (12 bytes).
    Removing stm32f1xx_hal.o(i.HAL_GetUIDw0), (12 bytes).
    Removing stm32f1xx_hal.o(i.HAL_GetUIDw1), (12 bytes).
    Removing stm32f1xx_hal.o(i.HAL_GetUIDw2), (12 bytes).
    Removing stm32f1xx_hal.o(i.HAL_MspDeInit), (2 bytes).
    Removing stm32f1xx_hal.o(i.HAL_MspInit), (2 bytes).
    Removing stm32f1xx_hal.o(i.HAL_ResumeTick), (14 bytes).
    Removing stm32f1xx_hal.o(i.HAL_SetTickFreq), (36 bytes).
    Removing stm32f1xx_hal.o(i.HAL_SuspendTick), (14 bytes).
    Removing stm32f1xx_hal_rcc.o(.rev16_text), (4 bytes).
    Removing stm32f1xx_hal_rcc.o(.revsh_text), (4 bytes).
    Removing stm32f1xx_hal_rcc.o(.rrx_text), (6 bytes).
    Removing stm32f1xx_hal_rcc.o(i.HAL_RCC_CSSCallback), (2 bytes).
    Removing stm32f1xx_hal_rcc.o(i.HAL_RCC_DeInit), (220 bytes).
    Removing stm32f1xx_hal_rcc.o(i.HAL_RCC_DisableCSS), (12 bytes).
    Removing stm32f1xx_hal_rcc.o(i.HAL_RCC_EnableCSS), (12 bytes).
    Removing stm32f1xx_hal_rcc.o(i.HAL_RCC_GetClockConfig), (64 bytes).
    Removing stm32f1xx_hal_rcc.o(i.HAL_RCC_GetHCLKFreq), (12 bytes).
    Removing stm32f1xx_hal_rcc.o(i.HAL_RCC_GetOscConfig), (144 bytes).
    Removing stm32f1xx_hal_rcc.o(i.HAL_RCC_GetPCLK1Freq), (32 bytes).
    Removing stm32f1xx_hal_rcc.o(i.HAL_RCC_GetPCLK2Freq), (32 bytes).
    Removing stm32f1xx_hal_rcc.o(i.HAL_RCC_MCOConfig), (72 bytes).
    Removing stm32f1xx_hal_rcc.o(i.HAL_RCC_NMI_IRQHandler), (24 bytes).
    Removing stm32f1xx_hal_rcc_ex.o(.rev16_text), (4 bytes).
    Removing stm32f1xx_hal_rcc_ex.o(.revsh_text), (4 bytes).
    Removing stm32f1xx_hal_rcc_ex.o(.rrx_text), (6 bytes).
    Removing stm32f1xx_hal_rcc_ex.o(i.HAL_RCCEx_GetPeriphCLKConfig), (52 bytes).
    Removing stm32f1xx_hal_rcc_ex.o(i.HAL_RCCEx_GetPeriphCLKFreq), (184 bytes).
    Removing stm32f1xx_hal_rcc_ex.o(i.HAL_RCCEx_PeriphCLKConfig), (236 bytes).
    Removing stm32f1xx_hal_rcc_ex.o(.constdata), (18 bytes).
    Removing stm32f1xx_hal_gpio.o(.rev16_text), (4 bytes).
    Removing stm32f1xx_hal_gpio.o(.revsh_text), (4 bytes).
    Removing stm32f1xx_hal_gpio.o(.rrx_text), (6 bytes).
    Removing stm32f1xx_hal_gpio.o(i.HAL_GPIO_DeInit), (316 bytes).
    Removing stm32f1xx_hal_gpio.o(i.HAL_GPIO_EXTI_Callback), (2 bytes).
    Removing stm32f1xx_hal_gpio.o(i.HAL_GPIO_EXTI_IRQHandler), (24 bytes).
    Removing stm32f1xx_hal_gpio.o(i.HAL_GPIO_LockPin), (34 bytes).
    Removing stm32f1xx_hal_gpio.o(i.HAL_GPIO_ReadPin), (10 bytes).
    Removing stm32f1xx_hal_gpio.o(i.HAL_GPIO_TogglePin), (16 bytes).
    Removing stm32f1xx_hal_dma.o(.rev16_text), (4 bytes).
    Removing stm32f1xx_hal_dma.o(.revsh_text), (4 bytes).
    Removing stm32f1xx_hal_dma.o(.rrx_text), (6 bytes).
    Removing stm32f1xx_hal_dma.o(i.DMA_SetConfig), (42 bytes).
    Removing stm32f1xx_hal_dma.o(i.HAL_DMA_Abort), (70 bytes).
    Removing stm32f1xx_hal_dma.o(i.HAL_DMA_Abort_IT), (304 bytes).
    Removing stm32f1xx_hal_dma.o(i.HAL_DMA_DeInit), (128 bytes).
    Removing stm32f1xx_hal_dma.o(i.HAL_DMA_GetError), (4 bytes).
    Removing stm32f1xx_hal_dma.o(i.HAL_DMA_GetState), (6 bytes).
    Removing stm32f1xx_hal_dma.o(i.HAL_DMA_IRQHandler), (584 bytes).
    Removing stm32f1xx_hal_dma.o(i.HAL_DMA_Init), (124 bytes).
    Removing stm32f1xx_hal_dma.o(i.HAL_DMA_PollForTransfer), (988 bytes).
    Removing stm32f1xx_hal_dma.o(i.HAL_DMA_RegisterCallback), (74 bytes).
    Removing stm32f1xx_hal_dma.o(i.HAL_DMA_Start), (80 bytes).
    Removing stm32f1xx_hal_dma.o(i.HAL_DMA_Start_IT), (112 bytes).
    Removing stm32f1xx_hal_dma.o(i.HAL_DMA_UnRegisterCallback), (82 bytes).
    Removing stm32f1xx_hal_cortex.o(.rev16_text), (4 bytes).
    Removing stm32f1xx_hal_cortex.o(.revsh_text), (4 bytes).
    Removing stm32f1xx_hal_cortex.o(.rrx_text), (6 bytes).
    Removing stm32f1xx_hal_cortex.o(i.HAL_NVIC_ClearPendingIRQ), (26 bytes).
    Removing stm32f1xx_hal_cortex.o(i.HAL_NVIC_DisableIRQ), (34 bytes).
    Removing stm32f1xx_hal_cortex.o(i.HAL_NVIC_EnableIRQ), (26 bytes).
    Removing stm32f1xx_hal_cortex.o(i.HAL_NVIC_GetActive), (36 bytes).
    Removing stm32f1xx_hal_cortex.o(i.HAL_NVIC_GetPendingIRQ), (36 bytes).
    Removing stm32f1xx_hal_cortex.o(i.HAL_NVIC_GetPriority), (82 bytes).
    Removing stm32f1xx_hal_cortex.o(i.HAL_NVIC_GetPriorityGrouping), (16 bytes).
    Removing stm32f1xx_hal_cortex.o(i.HAL_NVIC_SetPendingIRQ), (26 bytes).
    Removing stm32f1xx_hal_cortex.o(i.HAL_NVIC_SystemReset), (36 bytes).
    Removing stm32f1xx_hal_cortex.o(i.HAL_SYSTICK_CLKSourceConfig), (24 bytes).
    Removing stm32f1xx_hal_cortex.o(i.HAL_SYSTICK_Callback), (2 bytes).
    Removing stm32f1xx_hal_cortex.o(i.HAL_SYSTICK_IRQHandler), (8 bytes).
    Removing stm32f1xx_hal_pwr.o(.rev16_text), (4 bytes).
    Removing stm32f1xx_hal_pwr.o(.revsh_text), (4 bytes).
    Removing stm32f1xx_hal_pwr.o(.rrx_text), (6 bytes).
    Removing stm32f1xx_hal_pwr.o(i.HAL_PWR_ConfigPVD), (124 bytes).
    Removing stm32f1xx_hal_pwr.o(i.HAL_PWR_DeInit), (24 bytes).
    Removing stm32f1xx_hal_pwr.o(i.HAL_PWR_DisableBkUpAccess), (12 bytes).
    Removing stm32f1xx_hal_pwr.o(i.HAL_PWR_DisablePVD), (12 bytes).
    Removing stm32f1xx_hal_pwr.o(i.HAL_PWR_DisableSEVOnPend), (16 bytes).
    Removing stm32f1xx_hal_pwr.o(i.HAL_PWR_DisableSleepOnExit), (16 bytes).
    Removing stm32f1xx_hal_pwr.o(i.HAL_PWR_DisableWakeUpPin), (28 bytes).
    Removing stm32f1xx_hal_pwr.o(i.HAL_PWR_EnableBkUpAccess), (12 bytes).
    Removing stm32f1xx_hal_pwr.o(i.HAL_PWR_EnablePVD), (12 bytes).
    Removing stm32f1xx_hal_pwr.o(i.HAL_PWR_EnableSEVOnPend), (16 bytes).
    Removing stm32f1xx_hal_pwr.o(i.HAL_PWR_EnableSleepOnExit), (16 bytes).
    Removing stm32f1xx_hal_pwr.o(i.HAL_PWR_EnableWakeUpPin), (28 bytes).
    Removing stm32f1xx_hal_pwr.o(i.HAL_PWR_EnterSLEEPMode), (32 bytes).
    Removing stm32f1xx_hal_pwr.o(i.HAL_PWR_EnterSTANDBYMode), (32 bytes).
    Removing stm32f1xx_hal_pwr.o(i.HAL_PWR_EnterSTOPMode), (68 bytes).
    Removing stm32f1xx_hal_pwr.o(i.HAL_PWR_PVDCallback), (2 bytes).
    Removing stm32f1xx_hal_pwr.o(i.HAL_PWR_PVD_IRQHandler), (28 bytes).
    Removing stm32f1xx_hal_pwr.o(i.PWR_OverloadWfe), (6 bytes).
    Removing stm32f1xx_hal_flash.o(.rev16_text), (4 bytes).
    Removing stm32f1xx_hal_flash.o(.revsh_text), (4 bytes).
    Removing stm32f1xx_hal_flash.o(.rrx_text), (6 bytes).
    Removing stm32f1xx_hal_flash.o(i.FLASH_Program_HalfWord), (28 bytes).
    Removing stm32f1xx_hal_flash.o(i.FLASH_SetErrorCode), (92 bytes).
    Removing stm32f1xx_hal_flash.o(i.FLASH_WaitForLastOperation), (84 bytes).
    Removing stm32f1xx_hal_flash.o(i.HAL_FLASH_EndOfOperationCallback), (2 bytes).
    Removing stm32f1xx_hal_flash.o(i.HAL_FLASH_GetError), (12 bytes).
    Removing stm32f1xx_hal_flash.o(i.HAL_FLASH_IRQHandler), (264 bytes).
    Removing stm32f1xx_hal_flash.o(i.HAL_FLASH_Lock), (20 bytes).
    Removing stm32f1xx_hal_flash.o(i.HAL_FLASH_OB_Launch), (4 bytes).
    Removing stm32f1xx_hal_flash.o(i.HAL_FLASH_OB_Lock), (20 bytes).
    Removing stm32f1xx_hal_flash.o(i.HAL_FLASH_OB_Unlock), (36 bytes).
    Removing stm32f1xx_hal_flash.o(i.HAL_FLASH_OperationErrorCallback), (2 bytes).
    Removing stm32f1xx_hal_flash.o(i.HAL_FLASH_Program), (128 bytes).
    Removing stm32f1xx_hal_flash.o(i.HAL_FLASH_Program_IT), (80 bytes).
    Removing stm32f1xx_hal_flash.o(i.HAL_FLASH_Unlock), (40 bytes).
    Removing stm32f1xx_hal_flash.o(.bss), (32 bytes).
    Removing stm32f1xx_hal_flash_ex.o(.rev16_text), (4 bytes).
    Removing stm32f1xx_hal_flash_ex.o(.revsh_text), (4 bytes).
    Removing stm32f1xx_hal_flash_ex.o(.rrx_text), (6 bytes).
    Removing stm32f1xx_hal_flash_ex.o(i.FLASH_MassErase), (36 bytes).
    Removing stm32f1xx_hal_flash_ex.o(i.FLASH_OB_DisableWRP), (176 bytes).
    Removing stm32f1xx_hal_flash_ex.o(i.FLASH_OB_EnableWRP), (176 bytes).
    Removing stm32f1xx_hal_flash_ex.o(i.FLASH_OB_GetRDP), (24 bytes).
    Removing stm32f1xx_hal_flash_ex.o(i.FLASH_OB_RDP_LevelConfig), (100 bytes).
    Removing stm32f1xx_hal_flash_ex.o(i.FLASH_PageErase), (36 bytes).
    Removing stm32f1xx_hal_flash_ex.o(i.HAL_FLASHEx_Erase), (168 bytes).
    Removing stm32f1xx_hal_flash_ex.o(i.HAL_FLASHEx_Erase_IT), (72 bytes).
    Removing stm32f1xx_hal_flash_ex.o(i.HAL_FLASHEx_OBErase), (84 bytes).
    Removing stm32f1xx_hal_flash_ex.o(i.HAL_FLASHEx_OBGetConfig), (36 bytes).
    Removing stm32f1xx_hal_flash_ex.o(i.HAL_FLASHEx_OBGetUserData), (32 bytes).
    Removing stm32f1xx_hal_flash_ex.o(i.HAL_FLASHEx_OBProgram), (200 bytes).
    Removing stm32f1xx_hal_exti.o(.rev16_text), (4 bytes).
    Removing stm32f1xx_hal_exti.o(.revsh_text), (4 bytes).
    Removing stm32f1xx_hal_exti.o(.rrx_text), (6 bytes).
    Removing stm32f1xx_hal_exti.o(i.HAL_EXTI_ClearConfigLine), (104 bytes).
    Removing stm32f1xx_hal_exti.o(i.HAL_EXTI_ClearPending), (20 bytes).
    Removing stm32f1xx_hal_exti.o(i.HAL_EXTI_GenerateSWI), (20 bytes).
    Removing stm32f1xx_hal_exti.o(i.HAL_EXTI_GetConfigLine), (140 bytes).
    Removing stm32f1xx_hal_exti.o(i.HAL_EXTI_GetHandle), (12 bytes).
    Removing stm32f1xx_hal_exti.o(i.HAL_EXTI_GetPending), (24 bytes).
    Removing stm32f1xx_hal_exti.o(i.HAL_EXTI_IRQHandler), (36 bytes).
    Removing stm32f1xx_hal_exti.o(i.HAL_EXTI_RegisterCallback), (14 bytes).
    Removing stm32f1xx_hal_exti.o(i.HAL_EXTI_SetConfigLine), (164 bytes).
    Removing system_stm32f1xx_1.o(.rev16_text), (4 bytes).
    Removing system_stm32f1xx_1.o(.revsh_text), (4 bytes).
    Removing system_stm32f1xx_1.o(.rrx_text), (6 bytes).
    Removing system_stm32f1xx_1.o(i.SystemCoreClockUpdate), (104 bytes).
    Removing system_stm32f1xx_1.o(.constdata), (8 bytes).

240 unused section(s) (total 9612 bytes) removed from the image.

==============================================================================

Image Symbol Table

    Local Symbols

    Symbol Name                              Value     Ov Type        Size  Object(Section)

    ../Core/Src/system_stm32f1xx.c           0x00000000   Number         0  system_stm32f1xx_1.o ABSOLUTE
    ../Drivers/STM32F1xx_HAL_Driver/Src/stm32f1xx_hal.c 0x00000000   Number         0  stm32f1xx_hal.o ABSOLUTE
    ../Drivers/STM32F1xx_HAL_Driver/Src/stm32f1xx_hal_cortex.c 0x00000000   Number         0  stm32f1xx_hal_cortex.o ABSOLUTE
    ../Drivers/STM32F1xx_HAL_Driver/Src/stm32f1xx_hal_dma.c 0x00000000   Number         0  stm32f1xx_hal_dma.o ABSOLUTE
    ../Drivers/STM32F1xx_HAL_Driver/Src/stm32f1xx_hal_exti.c 0x00000000   Number         0  stm32f1xx_hal_exti.o ABSOLUTE
    ../Drivers/STM32F1xx_HAL_Driver/Src/stm32f1xx_hal_flash.c 0x00000000   Number         0  stm32f1xx_hal_flash.o ABSOLUTE
    ../Drivers/STM32F1xx_HAL_Driver/Src/stm32f1xx_hal_flash_ex.c 0x00000000   Number         0  stm32f1xx_hal_flash_ex.o ABSOLUTE
    ../Drivers/STM32F1xx_HAL_Driver/Src/stm32f1xx_hal_gpio.c 0x00000000   Number         0  stm32f1xx_hal_gpio.o ABSOLUTE
    ../Drivers/STM32F1xx_HAL_Driver/Src/stm32f1xx_hal_gpio_ex.c 0x00000000   Number         0  stm32f1xx_hal_gpio_ex.o ABSOLUTE
    ../Drivers/STM32F1xx_HAL_Driver/Src/stm32f1xx_hal_pwr.c 0x00000000   Number         0  stm32f1xx_hal_pwr.o ABSOLUTE
    ../Drivers/STM32F1xx_HAL_Driver/Src/stm32f1xx_hal_rcc.c 0x00000000   Number         0  stm32f1xx_hal_rcc.o ABSOLUTE
    ../Drivers/STM32F1xx_HAL_Driver/Src/stm32f1xx_hal_rcc_ex.c 0x00000000   Number         0  stm32f1xx_hal_rcc_ex.o ABSOLUTE
    ../Drivers/STM32F1xx_HAL_Driver/Src/stm32f1xx_hal_tim.c 0x00000000   Number         0  stm32f1xx_hal_tim.o ABSOLUTE
    ../Drivers/STM32F1xx_HAL_Driver/Src/stm32f1xx_hal_tim_ex.c 0x00000000   Number         0  stm32f1xx_hal_tim_ex.o ABSOLUTE
    ../clib/angel/boardlib.s                 0x00000000   Number         0  boardinit1.o ABSOLUTE
    ../clib/angel/boardlib.s                 0x00000000   Number         0  boardinit3.o ABSOLUTE
    ../clib/angel/boardlib.s                 0x00000000   Number         0  boardinit2.o ABSOLUTE
    ../clib/angel/boardlib.s                 0x00000000   Number         0  boardshut.o ABSOLUTE
    ../clib/angel/handlers.s                 0x00000000   Number         0  __scatter_zi.o ABSOLUTE
    ../clib/angel/handlers.s                 0x00000000   Number         0  __scatter_copy.o ABSOLUTE
    ../clib/angel/kernel.s                   0x00000000   Number         0  rtexit2.o ABSOLUTE
    ../clib/angel/kernel.s                   0x00000000   Number         0  __rtentry.o ABSOLUTE
    ../clib/angel/kernel.s                   0x00000000   Number         0  rtexit.o ABSOLUTE
    ../clib/angel/kernel.s                   0x00000000   Number         0  __rtentry4.o ABSOLUTE
    ../clib/angel/kernel.s                   0x00000000   Number         0  __rtentry2.o ABSOLUTE
    ../clib/angel/rt.s                       0x00000000   Number         0  rt_raise.o ABSOLUTE
    ../clib/angel/rt.s                       0x00000000   Number         0  rt_errno_addr_intlibspace.o ABSOLUTE
    ../clib/angel/rt.s                       0x00000000   Number         0  rt_errno_addr.o ABSOLUTE
    ../clib/angel/scatter.s                  0x00000000   Number         0  __scatter.o ABSOLUTE
    ../clib/angel/startup.s                  0x00000000   Number         0  __main.o ABSOLUTE
    ../clib/angel/sys.s                      0x00000000   Number         0  indicate_semi.o ABSOLUTE
    ../clib/angel/sys.s                      0x00000000   Number         0  sys_stackheap_outer.o ABSOLUTE
    ../clib/angel/sys.s                      0x00000000   Number         0  use_no_semi.o ABSOLUTE
    ../clib/angel/sys.s                      0x00000000   Number         0  libspace.o ABSOLUTE
    ../clib/angel/sysapp.c                   0x00000000   Number         0  sys_wrch.o ABSOLUTE
    ../clib/angel/sysapp.c                   0x00000000   Number         0  sys_command.o ABSOLUTE
    ../clib/angel/sysapp.c                   0x00000000   Number         0  sys_exit.o ABSOLUTE
    ../clib/armsys.c                         0x00000000   Number         0  no_argv.o ABSOLUTE
    ../clib/armsys.c                         0x00000000   Number         0  _get_argv_nomalloc.o ABSOLUTE
    ../clib/armsys.c                         0x00000000   Number         0  argv_veneer.o ABSOLUTE
    ../clib/armsys.c                         0x00000000   Number         0  argv_veneer.o ABSOLUTE
    ../clib/fenv.c                           0x00000000   Number         0  _rserrno.o ABSOLUTE
    ../clib/heapalloc.c                      0x00000000   Number         0  hrguard.o ABSOLUTE
    ../clib/heapaux.c                        0x00000000   Number         0  heapauxi.o ABSOLUTE
    ../clib/libinit.s                        0x00000000   Number         0  libshutdown.o ABSOLUTE
    ../clib/libinit.s                        0x00000000   Number         0  libshutdown2.o ABSOLUTE
    ../clib/libinit.s                        0x00000000   Number         0  libinit2.o ABSOLUTE
    ../clib/libinit.s                        0x00000000   Number         0  libinit.o ABSOLUTE
    ../clib/longlong.s                       0x00000000   Number         0  llushr.o ABSOLUTE
    ../clib/memcpset.s                       0x00000000   Number         0  rt_memclr.o ABSOLUTE
    ../clib/memcpset.s                       0x00000000   Number         0  rt_memclr_w.o ABSOLUTE
    ../clib/memcpset.s                       0x00000000   Number         0  strcmpv7m.o ABSOLUTE
    ../clib/printf.c                         0x00000000   Number         0  _printf_dec.o ABSOLUTE
    ../clib/printf.c                         0x00000000   Number         0  __printf_ss_wp.o ABSOLUTE
    ../clib/printf.c                         0x00000000   Number         0  __printf_flags_ss_wp.o ABSOLUTE
    ../clib/printf.c                         0x00000000   Number         0  _snputc.o ABSOLUTE
    ../clib/printf.c                         0x00000000   Number         0  _printf_char_common.o ABSOLUTE
    ../clib/printf.c                         0x00000000   Number         0  _sputc.o ABSOLUTE
    ../clib/printf.c                         0x00000000   Number         0  __printf_wp.o ABSOLUTE
    ../clib/printf.c                         0x00000000   Number         0  __printf.o ABSOLUTE
    ../clib/printf.c                         0x00000000   Number         0  __printf_nopercent.o ABSOLUTE
    ../clib/printf.c                         0x00000000   Number         0  noretval__2snprintf.o ABSOLUTE
    ../clib/printf.c                         0x00000000   Number         0  __2snprintf.o ABSOLUTE
    ../clib/printf.c                         0x00000000   Number         0  _printf_intcommon.o ABSOLUTE
    ../clib/printf.c                         0x00000000   Number         0  __printf_ss.o ABSOLUTE
    ../clib/printf.c                         0x00000000   Number         0  __printf_flags_ss.o ABSOLUTE
    ../clib/printf.c                         0x00000000   Number         0  __printf_flags.o ABSOLUTE
    ../clib/printf.c                         0x00000000   Number         0  __printf_flags_wp.o ABSOLUTE
    ../clib/printf_percent.s                 0x00000000   Number         0  _printf_percent.o ABSOLUTE
    ../clib/printf_percent.s                 0x00000000   Number         0  _printf_d.o ABSOLUTE
    ../clib/printf_percent.s                 0x00000000   Number         0  _printf_percent_end.o ABSOLUTE
    ../clib/signal.c                         0x00000000   Number         0  defsig_pvfn_inner.o ABSOLUTE
    ../clib/signal.c                         0x00000000   Number         0  defsig_stak_inner.o ABSOLUTE
    ../clib/signal.c                         0x00000000   Number         0  defsig_rtred_inner.o ABSOLUTE
    ../clib/signal.c                         0x00000000   Number         0  defsig_fpe_inner.o ABSOLUTE
    ../clib/signal.c                         0x00000000   Number         0  defsig_rtmem_formal.o ABSOLUTE
    ../clib/signal.c                         0x00000000   Number         0  defsig_segv_inner.o ABSOLUTE
    ../clib/signal.c                         0x00000000   Number         0  defsig_exit.o ABSOLUTE
    ../clib/signal.c                         0x00000000   Number         0  defsig_rtmem_inner.o ABSOLUTE
    ../clib/signal.c                         0x00000000   Number         0  defsig_rtmem_outer.o ABSOLUTE
    ../clib/signal.c                         0x00000000   Number         0  defsig_cppl_inner.o ABSOLUTE
    ../clib/signal.c                         0x00000000   Number         0  __raise.o ABSOLUTE
    ../clib/signal.c                         0x00000000   Number         0  defsig_other.o ABSOLUTE
    ../clib/signal.c                         0x00000000   Number         0  defsig_abrt_inner.o ABSOLUTE
    ../clib/signal.c                         0x00000000   Number         0  defsig_general.o ABSOLUTE
    ../clib/signal.s                         0x00000000   Number         0  defsig.o ABSOLUTE
    ../clib/stdlib.c                         0x00000000   Number         0  exit.o ABSOLUTE
    ../fplib/d2f.s                           0x00000000   Number         0  d2f.o ABSOLUTE
    ../fplib/daddsub.s                       0x00000000   Number         0  daddsub_clz.o ABSOLUTE
    ../fplib/dcheck1.s                       0x00000000   Number         0  dcheck1.o ABSOLUTE
    ../fplib/dcmpi.s                         0x00000000   Number         0  dcmpi.o ABSOLUTE
    ../fplib/ddiv.s                          0x00000000   Number         0  ddiv.o ABSOLUTE
    ../fplib/deqf.s                          0x00000000   Number         0  deqf.o ABSOLUTE
    ../fplib/dfix.s                          0x00000000   Number         0  dfix.o ABSOLUTE
    ../fplib/dflt.s                          0x00000000   Number         0  dflt_clz.o ABSOLUTE
    ../fplib/dleqf.s                         0x00000000   Number         0  dleqf.o ABSOLUTE
    ../fplib/dmul.s                          0x00000000   Number         0  dmul.o ABSOLUTE
    ../fplib/dnaninf.s                       0x00000000   Number         0  dnaninf.o ABSOLUTE
    ../fplib/dretinf.s                       0x00000000   Number         0  dretinf.o ABSOLUTE
    ../fplib/faddsub.s                       0x00000000   Number         0  faddsub_clz.o ABSOLUTE
    ../fplib/fflt.s                          0x00000000   Number         0  fflt_clz.o ABSOLUTE
    ../fplib/fnaninf.s                       0x00000000   Number         0  fnaninf.o ABSOLUTE
    ../fplib/fpinit.s                        0x00000000   Number         0  fpinit.o ABSOLUTE
    ../fplib/fretinf.s                       0x00000000   Number         0  fretinf.o ABSOLUTE
    ../fplib/retnan.s                        0x00000000   Number         0  retnan.o ABSOLUTE
    ../fplib/scalbn.s                        0x00000000   Number         0  scalbn.o ABSOLUTE
    ../fplib/trapv.s                         0x00000000   Number         0  trapv.o ABSOLUTE
    ../fplib/usenofp.s                       0x00000000   Number         0  usenofp.o ABSOLUTE
    ../mathlib/atan.c                        0x00000000   Number         0  atan.o ABSOLUTE
    ../mathlib/atan.c                        0x00000000   Number         0  atan_x.o ABSOLUTE
    ../mathlib/atan2.c                       0x00000000   Number         0  atan2_x.o ABSOLUTE
    ../mathlib/atan2.c                       0x00000000   Number         0  atan2.o ABSOLUTE
    ../mathlib/dunder.c                      0x00000000   Number         0  dunder.o ABSOLUTE
    ../mathlib/fpclassify.c                  0x00000000   Number         0  fpclassify.o ABSOLUTE
    ../mathlib/poly.c                        0x00000000   Number         0  poly.o ABSOLUTE
    ../mathlib/qnan.c                        0x00000000   Number         0  qnan.o ABSOLUTE
    ..\Core\Src\CCGraphicWidget_Base.c       0x00000000   Number         0  ccgraphicwidget_base.o ABSOLUTE
    ..\Core\Src\CCGraphic_Arc.c              0x00000000   Number         0  ccgraphic_arc.o ABSOLUTE
    ..\Core\Src\CCGraphic_Base.c             0x00000000   Number         0  ccgraphic_base.o ABSOLUTE
    ..\Core\Src\CCGraphic_Circle.c           0x00000000   Number         0  ccgraphic_circle.o ABSOLUTE
    ..\Core\Src\CCGraphic_Ellipse.c          0x00000000   Number         0  ccgraphic_ellipse.o ABSOLUTE
    ..\Core\Src\CCGraphic_Frame.c            0x00000000   Number         0  ccgraphic_frame.o ABSOLUTE
    ..\Core\Src\CCGraphic_Image.c            0x00000000   Number         0  ccgraphic_image.o ABSOLUTE
    ..\Core\Src\CCGraphic_Line.c             0x00000000   Number         0  ccgraphic_line.o ABSOLUTE
    ..\Core\Src\CCGraphic_Menu.c             0x00000000   Number         0  ccgraphic_menu.o ABSOLUTE
    ..\Core\Src\CCGraphic_MenuItem.c         0x00000000   Number         0  ccgraphic_menuitem.o ABSOLUTE
    ..\Core\Src\CCGraphic_Point.c            0x00000000   Number         0  ccgraphic_point.o ABSOLUTE
    ..\Core\Src\CCGraphic_Rectangle.c        0x00000000   Number         0  ccgraphic_rectangle.o ABSOLUTE
    ..\Core\Src\CCGraphic_Size.c             0x00000000   Number         0  ccgraphic_size.o ABSOLUTE
    ..\Core\Src\CCGraphic_TextConfig.c       0x00000000   Number         0  ccgraphic_textconfig.o ABSOLUTE
    ..\Core\Src\CCGraphic_TextEdit.c         0x00000000   Number         0  ccgraphic_textedit.o ABSOLUTE
    ..\Core\Src\CCGraphic_TextItem.c         0x00000000   Number         0  ccgraphic_textitem.o ABSOLUTE
    ..\Core\Src\CCGraphic_Triangle.c         0x00000000   Number         0  ccgraphic_triangle.o ABSOLUTE
    ..\Core\Src\CCGraphic_Utils.c            0x00000000   Number         0  ccgraphic_utils.o ABSOLUTE
    ..\Core\Src\CCGraphic_device_adapter.c   0x00000000   Number         0  ccgraphic_device_adapter.o ABSOLUTE
    ..\Core\Src\CCGraphic_device_oled_adapter.c 0x00000000   Number         0  ccgraphic_device_oled_adapter.o ABSOLUTE
    ..\Core\Src\ascii6x8.source.c            0x00000000   Number         0  ascii6x8.source.o ABSOLUTE
    ..\Core\Src\ascii8x16.source.c           0x00000000   Number         0  ascii8x16.source.o ABSOLUTE
    ..\Core\Src\gpio.c                       0x00000000   Number         0  gpio.o ABSOLUTE
    ..\Core\Src\graphic_test_base.c          0x00000000   Number         0  graphic_test_base.o ABSOLUTE
    ..\Core\Src\graphic_test_device.c        0x00000000   Number         0  graphic_test_device.o ABSOLUTE
    ..\Core\Src\graphic_test_widget.c        0x00000000   Number         0  graphic_test_widget.o ABSOLUTE
    ..\Core\Src\graphoc_test_components.c    0x00000000   Number         0  graphoc_test_components.o ABSOLUTE
    ..\Core\Src\hard_iic.c                   0x00000000   Number         0  hard_iic.o ABSOLUTE
    ..\Core\Src\hard_iic__fastsetup.c        0x00000000   Number         0  hard_iic__fastsetup.o ABSOLUTE
    ..\Core\Src\hard_spi.c                   0x00000000   Number         0  hard_spi.o ABSOLUTE
    ..\Core\Src\hard_spi__fastsetup.c        0x00000000   Number         0  hard_spi__fastsetup.o ABSOLUTE
    ..\Core\Src\main.c                       0x00000000   Number         0  main.o ABSOLUTE
    ..\Core\Src\oled_base_driver_ssd1306.c   0x00000000   Number         0  oled_base_driver_ssd1306.o ABSOLUTE
    ..\Core\Src\oled_base_driver_ssd1309.c   0x00000000   Number         0  oled_base_driver_ssd1309.o ABSOLUTE
    ..\Core\Src\oled_test.c                  0x00000000   Number         0  oled_test.o ABSOLUTE
    ..\Core\Src\oled_test_gard_spi.c         0x00000000   Number         0  oled_test_gard_spi.o ABSOLUTE
    ..\Core\Src\oled_test_hard_iic.c         0x00000000   Number         0  oled_test_hard_iic.o ABSOLUTE
    ..\Core\Src\oled_test_soft_iic.c         0x00000000   Number         0  oled_test_soft_iic.o ABSOLUTE
    ..\Core\Src\oled_test_soft_spi.c         0x00000000   Number         0  oled_test_soft_spi.o ABSOLUTE
    ..\Core\Src\simple_text.c                0x00000000   Number         0  simple_text.o ABSOLUTE
    ..\Core\Src\soft_iic.c                   0x00000000   Number         0  soft_iic.o ABSOLUTE
    ..\Core\Src\soft_iic_fastsetup.c         0x00000000   Number         0  soft_iic_fastsetup.o ABSOLUTE
    ..\Core\Src\soft_spi.c                   0x00000000   Number         0  soft_spi.o ABSOLUTE
    ..\Core\Src\soft_spi_fast_setup.c        0x00000000   Number         0  soft_spi_fast_setup.o ABSOLUTE
    ..\Core\Src\stm32f1xx_hal_msp.c          0x00000000   Number         0  stm32f1xx_hal_msp.o ABSOLUTE
    ..\Core\Src\stm32f1xx_it.c               0x00000000   Number         0  stm32f1xx_it.o ABSOLUTE
    ..\Core\Src\system_stm32f1xx.c           0x00000000   Number         0  system_stm32f1xx_1.o ABSOLUTE
    ..\Core\Src\test_all.c                   0x00000000   Number         0  test_all.o ABSOLUTE
    ..\Core\Src\test_image.c                 0x00000000   Number         0  test_image.o ABSOLUTE
    ..\Core\Src\test_image_temp.c            0x00000000   Number         0  test_image_temp.o ABSOLUTE
    ..\Drivers\STM32F1xx_HAL_Driver\Src\stm32f1xx_hal.c 0x00000000   Number         0  stm32f1xx_hal.o ABSOLUTE
    ..\Drivers\STM32F1xx_HAL_Driver\Src\stm32f1xx_hal_cortex.c 0x00000000   Number         0  stm32f1xx_hal_cortex.o ABSOLUTE
    ..\Drivers\STM32F1xx_HAL_Driver\Src\stm32f1xx_hal_dma.c 0x00000000   Number         0  stm32f1xx_hal_dma.o ABSOLUTE
    ..\Drivers\STM32F1xx_HAL_Driver\Src\stm32f1xx_hal_exti.c 0x00000000   Number         0  stm32f1xx_hal_exti.o ABSOLUTE
    ..\Drivers\STM32F1xx_HAL_Driver\Src\stm32f1xx_hal_flash.c 0x00000000   Number         0  stm32f1xx_hal_flash.o ABSOLUTE
    ..\Drivers\STM32F1xx_HAL_Driver\Src\stm32f1xx_hal_flash_ex.c 0x00000000   Number         0  stm32f1xx_hal_flash_ex.o ABSOLUTE
    ..\Drivers\STM32F1xx_HAL_Driver\Src\stm32f1xx_hal_gpio.c 0x00000000   Number         0  stm32f1xx_hal_gpio.o ABSOLUTE
    ..\Drivers\STM32F1xx_HAL_Driver\Src\stm32f1xx_hal_gpio_ex.c 0x00000000   Number         0  stm32f1xx_hal_gpio_ex.o ABSOLUTE
    ..\Drivers\STM32F1xx_HAL_Driver\Src\stm32f1xx_hal_pwr.c 0x00000000   Number         0  stm32f1xx_hal_pwr.o ABSOLUTE
    ..\Drivers\STM32F1xx_HAL_Driver\Src\stm32f1xx_hal_rcc.c 0x00000000   Number         0  stm32f1xx_hal_rcc.o ABSOLUTE
    ..\Drivers\STM32F1xx_HAL_Driver\Src\stm32f1xx_hal_rcc_ex.c 0x00000000   Number         0  stm32f1xx_hal_rcc_ex.o ABSOLUTE
    ..\Drivers\STM32F1xx_HAL_Driver\Src\stm32f1xx_hal_tim.c 0x00000000   Number         0  stm32f1xx_hal_tim.o ABSOLUTE
    ..\Drivers\STM32F1xx_HAL_Driver\Src\stm32f1xx_hal_tim_ex.c 0x00000000   Number         0  stm32f1xx_hal_tim_ex.o ABSOLUTE
    ..\\Core\\Src\\CCGraphic_device_adapter.c 0x00000000   Number         0  ccgraphic_device_adapter.o ABSOLUTE
    ..\\Core\\Src\\CCGraphic_device_oled_adapter.c 0x00000000   Number         0  ccgraphic_device_oled_adapter.o ABSOLUTE
    ..\\Core\\Src\\gpio.c                    0x00000000   Number         0  gpio.o ABSOLUTE
    ..\\Core\\Src\\graphic_test_widget.c     0x00000000   Number         0  graphic_test_widget.o ABSOLUTE
    ..\\Core\\Src\\graphoc_test_components.c 0x00000000   Number         0  graphoc_test_components.o ABSOLUTE
    ..\\Core\\Src\\hard_iic.c                0x00000000   Number         0  hard_iic.o ABSOLUTE
    ..\\Core\\Src\\hard_spi.c                0x00000000   Number         0  hard_spi.o ABSOLUTE
    ..\\Core\\Src\\main.c                    0x00000000   Number         0  main.o ABSOLUTE
    ..\\Core\\Src\\oled_base_driver_ssd1309.c 0x00000000   Number         0  oled_base_driver_ssd1309.o ABSOLUTE
    ..\\Core\\Src\\oled_test.c               0x00000000   Number         0  oled_test.o ABSOLUTE
    ..\\Core\\Src\\oled_test_soft_spi.c      0x00000000   Number         0  oled_test_soft_spi.o ABSOLUTE
    ..\\Core\\Src\\soft_iic.c                0x00000000   Number         0  soft_iic.o ABSOLUTE
    ..\\Core\\Src\\soft_spi.c                0x00000000   Number         0  soft_spi.o ABSOLUTE
    ..\\Core\\Src\\soft_spi_fast_setup.c     0x00000000   Number         0  soft_spi_fast_setup.o ABSOLUTE
    ..\\Core\\Src\\stm32f1xx_hal_msp.c       0x00000000   Number         0  stm32f1xx_hal_msp.o ABSOLUTE
    ..\\Core\\Src\\stm32f1xx_it.c            0x00000000   Number         0  stm32f1xx_it.o ABSOLUTE
    ..\\Core\\Src\\test_all.c                0x00000000   Number         0  test_all.o ABSOLUTE
    dc.s                                     0x00000000   Number         0  dc.o ABSOLUTE
    startup_stm32f103xe.s                    0x00000000   Number         0  startup_stm32f103xe.o ABSOLUTE
    RESET                                    0x08000000   Section      304  startup_stm32f103xe.o(RESET)
    !!!main                                  0x08000130   Section        8  __main.o(!!!main)
    !!!scatter                               0x08000138   Section       52  __scatter.o(!!!scatter)
    !!handler_copy                           0x0800016c   Section       26  __scatter_copy.o(!!handler_copy)
    !!handler_zi                             0x08000188   Section       28  __scatter_zi.o(!!handler_zi)
    .ARM.Collect$$_printf_percent$$00000000  0x080001a4   Section        0  _printf_percent.o(.ARM.Collect$$_printf_percent$$00000000)
    .ARM.Collect$$_printf_percent$$00000009  0x080001a4   Section        6  _printf_d.o(.ARM.Collect$$_printf_percent$$00000009)
    .ARM.Collect$$_printf_percent$$00000017  0x080001aa   Section        4  _printf_percent_end.o(.ARM.Collect$$_printf_percent$$00000017)
    .ARM.Collect$$libinit$$00000000          0x080001ae   Section        2  libinit.o(.ARM.Collect$$libinit$$00000000)
    .ARM.Collect$$libinit$$00000002          0x080001b0   Section        0  libinit2.o(.ARM.Collect$$libinit$$00000002)
    .ARM.Collect$$libinit$$00000004          0x080001b0   Section        0  libinit2.o(.ARM.Collect$$libinit$$00000004)
    .ARM.Collect$$libinit$$0000000A          0x080001b0   Section        0  libinit2.o(.ARM.Collect$$libinit$$0000000A)
    .ARM.Collect$$libinit$$0000000C          0x080001b0   Section        0  libinit2.o(.ARM.Collect$$libinit$$0000000C)
    .ARM.Collect$$libinit$$0000000E          0x080001b0   Section        0  libinit2.o(.ARM.Collect$$libinit$$0000000E)
    .ARM.Collect$$libinit$$00000011          0x080001b0   Section        0  libinit2.o(.ARM.Collect$$libinit$$00000011)
    .ARM.Collect$$libinit$$00000013          0x080001b0   Section        0  libinit2.o(.ARM.Collect$$libinit$$00000013)
    .ARM.Collect$$libinit$$00000015          0x080001b0   Section        0  libinit2.o(.ARM.Collect$$libinit$$00000015)
    .ARM.Collect$$libinit$$00000017          0x080001b0   Section        0  libinit2.o(.ARM.Collect$$libinit$$00000017)
    .ARM.Collect$$libinit$$00000019          0x080001b0   Section        0  libinit2.o(.ARM.Collect$$libinit$$00000019)
    .ARM.Collect$$libinit$$0000001B          0x080001b0   Section        0  libinit2.o(.ARM.Collect$$libinit$$0000001B)
    .ARM.Collect$$libinit$$0000001D          0x080001b0   Section        0  libinit2.o(.ARM.Collect$$libinit$$0000001D)
    .ARM.Collect$$libinit$$0000001F          0x080001b0   Section        0  libinit2.o(.ARM.Collect$$libinit$$0000001F)
    .ARM.Collect$$libinit$$00000021          0x080001b0   Section        0  libinit2.o(.ARM.Collect$$libinit$$00000021)
    .ARM.Collect$$libinit$$00000023          0x080001b0   Section        0  libinit2.o(.ARM.Collect$$libinit$$00000023)
    .ARM.Collect$$libinit$$00000025          0x080001b0   Section        0  libinit2.o(.ARM.Collect$$libinit$$00000025)
    .ARM.Collect$$libinit$$0000002C          0x080001b0   Section        0  libinit2.o(.ARM.Collect$$libinit$$0000002C)
    .ARM.Collect$$libinit$$0000002E          0x080001b0   Section        0  libinit2.o(.ARM.Collect$$libinit$$0000002E)
    .ARM.Collect$$libinit$$00000030          0x080001b0   Section        0  libinit2.o(.ARM.Collect$$libinit$$00000030)
    .ARM.Collect$$libinit$$00000032          0x080001b0   Section        0  libinit2.o(.ARM.Collect$$libinit$$00000032)
    .ARM.Collect$$libinit$$00000033          0x080001b0   Section        2  libinit2.o(.ARM.Collect$$libinit$$00000033)
    .ARM.Collect$$libshutdown$$00000000      0x080001b2   Section        2  libshutdown.o(.ARM.Collect$$libshutdown$$00000000)
    .ARM.Collect$$libshutdown$$00000002      0x080001b4   Section        0  libshutdown2.o(.ARM.Collect$$libshutdown$$00000002)
    .ARM.Collect$$libshutdown$$00000004      0x080001b4   Section        0  libshutdown2.o(.ARM.Collect$$libshutdown$$00000004)
    .ARM.Collect$$libshutdown$$00000006      0x080001b4   Section        0  libshutdown2.o(.ARM.Collect$$libshutdown$$00000006)
    .ARM.Collect$$libshutdown$$00000009      0x080001b4   Section        0  libshutdown2.o(.ARM.Collect$$libshutdown$$00000009)
    .ARM.Collect$$libshutdown$$0000000C      0x080001b4   Section        0  libshutdown2.o(.ARM.Collect$$libshutdown$$0000000C)
    .ARM.Collect$$libshutdown$$0000000E      0x080001b4   Section        0  libshutdown2.o(.ARM.Collect$$libshutdown$$0000000E)
    .ARM.Collect$$libshutdown$$00000011      0x080001b4   Section        0  libshutdown2.o(.ARM.Collect$$libshutdown$$00000011)
    .ARM.Collect$$libshutdown$$00000012      0x080001b4   Section        2  libshutdown2.o(.ARM.Collect$$libshutdown$$00000012)
    .ARM.Collect$$rtentry$$00000000          0x080001b6   Section        0  __rtentry.o(.ARM.Collect$$rtentry$$00000000)
    .ARM.Collect$$rtentry$$00000002          0x080001b6   Section        0  __rtentry2.o(.ARM.Collect$$rtentry$$00000002)
    .ARM.Collect$$rtentry$$00000004          0x080001b6   Section        6  __rtentry4.o(.ARM.Collect$$rtentry$$00000004)
    .ARM.Collect$$rtentry$$00000009          0x080001bc   Section        0  __rtentry2.o(.ARM.Collect$$rtentry$$00000009)
    .ARM.Collect$$rtentry$$0000000A          0x080001bc   Section        4  __rtentry2.o(.ARM.Collect$$rtentry$$0000000A)
    .ARM.Collect$$rtentry$$0000000C          0x080001c0   Section        0  __rtentry2.o(.ARM.Collect$$rtentry$$0000000C)
    .ARM.Collect$$rtentry$$0000000D          0x080001c0   Section        8  __rtentry2.o(.ARM.Collect$$rtentry$$0000000D)
    .ARM.Collect$$rtexit$$00000000           0x080001c8   Section        2  rtexit.o(.ARM.Collect$$rtexit$$00000000)
    .ARM.Collect$$rtexit$$00000002           0x080001ca   Section        0  rtexit2.o(.ARM.Collect$$rtexit$$00000002)
    .ARM.Collect$$rtexit$$00000003           0x080001ca   Section        4  rtexit2.o(.ARM.Collect$$rtexit$$00000003)
    .ARM.Collect$$rtexit$$00000004           0x080001ce   Section        6  rtexit2.o(.ARM.Collect$$rtexit$$00000004)
    .text                                    0x080001d4   Section       64  startup_stm32f103xe.o(.text)
    .text                                    0x08000214   Section        0  noretval__2snprintf.o(.text)
    .text                                    0x08000248   Section        0  __printf.o(.text)
    .text                                    0x080002b0   Section        0  _printf_dec.o(.text)
    .text                                    0x08000328   Section       68  rt_memclr.o(.text)
    .text                                    0x0800036c   Section       78  rt_memclr_w.o(.text)
    .text                                    0x080003bc   Section      128  strcmpv7m.o(.text)
    .text                                    0x0800043c   Section        0  heapauxi.o(.text)
    .text                                    0x08000442   Section        0  _rserrno.o(.text)
    .text                                    0x08000458   Section        0  _printf_intcommon.o(.text)
    .text                                    0x0800050c   Section        0  _printf_char_common.o(.text)
    _printf_input_char                       0x0800050d   Thumb Code    10  _printf_char_common.o(.text)
    .text                                    0x0800053c   Section        0  _sputc.o(.text)
    .text                                    0x08000546   Section        0  _snputc.o(.text)
    .text                                    0x08000558   Section        8  rt_errno_addr_intlibspace.o(.text)
    .text                                    0x08000560   Section        8  libspace.o(.text)
    .text                                    0x08000568   Section       74  sys_stackheap_outer.o(.text)
    .text                                    0x080005b2   Section        0  exit.o(.text)
    .text                                    0x080005c4   Section        0  sys_exit.o(.text)
    .text                                    0x080005d0   Section        2  use_no_semi.o(.text)
    .text                                    0x080005d2   Section        0  indicate_semi.o(.text)
    i.BusFault_Handler                       0x080005d2   Section        0  stm32f1xx_it.o(i.BusFault_Handler)
    i.CCGraphicWidget_AsciiTextItem_on_newLine_point 0x080005d4   Section        0  ccgraphic_textitem.o(i.CCGraphicWidget_AsciiTextItem_on_newLine_point)
    i.CCGraphicWidget_AsciiTextItem_relocate 0x080005f2   Section        0  ccgraphic_textitem.o(i.CCGraphicWidget_AsciiTextItem_relocate)
    i.CCGraphicWidget_AsciiTextItem_setAsciiText 0x080005f8   Section        0  ccgraphic_textitem.o(i.CCGraphicWidget_AsciiTextItem_setAsciiText)
    i.CCGraphicWidget_AsciiTextItem_setIndexedPoint 0x080005fc   Section        0  ccgraphic_textitem.o(i.CCGraphicWidget_AsciiTextItem_setIndexedPoint)
    i.CCGraphicWidget_MaxAcceptable_Size     0x08000602   Section        0  ccgraphicwidget_base.o(i.CCGraphicWidget_MaxAcceptable_Size)
    i.CCGraphicWidget_drawAsciiTextItem      0x08000638   Section        0  ccgraphic_textitem.o(i.CCGraphicWidget_drawAsciiTextItem)
    i.CCGraphicWidget_drawAsciiTextItem_with_finPoint 0x080006e0   Section        0  ccgraphic_textitem.o(i.CCGraphicWidget_drawAsciiTextItem_with_finPoint)
    i.CCGraphicWidget_draw_image             0x080007b8   Section        0  ccgraphic_image.o(i.CCGraphicWidget_draw_image)
    i.CCGraphicWidget_init_AsciiTextItem     0x080007d4   Section        0  ccgraphic_textitem.o(i.CCGraphicWidget_init_AsciiTextItem)
    i.CCGraphicWidget_init_image             0x080007e8   Section        0  ccgraphic_image.o(i.CCGraphicWidget_init_image)
    i.CCGraphic_createDeviceFrame            0x080007f0   Section        0  ccgraphic_frame.o(i.CCGraphic_createDeviceFrame)
    i.CCGraphic_draw_arc                     0x08000844   Section        0  ccgraphic_arc.o(i.CCGraphic_draw_arc)
    i.CCGraphic_draw_circle                  0x08000a5a   Section        0  ccgraphic_circle.o(i.CCGraphic_draw_circle)
    i.CCGraphic_draw_ellipse                 0x08000ba4   Section        0  ccgraphic_ellipse.o(i.CCGraphic_draw_ellipse)
    i.CCGraphic_draw_line                    0x08000e4c   Section        0  ccgraphic_line.o(i.CCGraphic_draw_line)
    i.CCGraphic_draw_point                   0x08000ed0   Section        0  ccgraphic_point.o(i.CCGraphic_draw_point)
    i.CCGraphic_draw_rectangle               0x08000ed8   Section        0  ccgraphic_rectangle.o(i.CCGraphic_draw_rectangle)
    i.CCGraphic_drawfilled_circle            0x08000f40   Section        0  ccgraphic_circle.o(i.CCGraphic_drawfilled_circle)
    i.CCGraphic_drawfilled_ellipse           0x0800113c   Section        0  ccgraphic_ellipse.o(i.CCGraphic_drawfilled_ellipse)
    i.CCGraphic_drawfilled_rectangle         0x08001498   Section        0  ccgraphic_rectangle.o(i.CCGraphic_drawfilled_rectangle)
    i.CCGraphic_drawfilled_triangle          0x080014ce   Section        0  ccgraphic_triangle.o(i.CCGraphic_drawfilled_triangle)
    i.CCGraphic_init_CCGraphicTextEdit       0x08001564   Section        0  ccgraphic_textedit.o(i.CCGraphic_init_CCGraphicTextEdit)
    i.CCGraphic_init_CCGraphic_Arc           0x080015b0   Section        0  ccgraphic_arc.o(i.CCGraphic_init_CCGraphic_Arc)
    i.CCGraphic_init_Menu                    0x080015c0   Section        0  ccgraphic_menu.o(i.CCGraphic_init_Menu)
    i.CCGraphic_init_circle                  0x08001664   Section        0  ccgraphic_circle.o(i.CCGraphic_init_circle)
    i.CCGraphic_init_ellipse                 0x0800166a   Section        0  ccgraphic_ellipse.o(i.CCGraphic_init_ellipse)
    i.CCGraphic_init_line                    0x08001672   Section        0  ccgraphic_line.o(i.CCGraphic_init_line)
    i.CCGraphic_init_point                   0x08001678   Section        0  ccgraphic_point.o(i.CCGraphic_init_point)
    i.CCGraphic_init_rectangle               0x0800167e   Section        0  ccgraphic_rectangle.o(i.CCGraphic_init_rectangle)
    i.CCGraphic_init_triangle                0x08001684   Section        0  ccgraphic_triangle.o(i.CCGraphic_init_triangle)
    i.DebugMon_Handler                       0x0800168c   Section        0  stm32f1xx_it.o(i.DebugMon_Handler)
    i.HAL_Delay                              0x08001690   Section        0  stm32f1xx_hal.o(i.HAL_Delay)
    i.HAL_GPIO_Init                          0x080016b4   Section        0  stm32f1xx_hal_gpio.o(i.HAL_GPIO_Init)
    i.HAL_GPIO_WritePin                      0x080018ac   Section        0  stm32f1xx_hal_gpio.o(i.HAL_GPIO_WritePin)
    i.HAL_GetTick                            0x080018b8   Section        0  stm32f1xx_hal.o(i.HAL_GetTick)
    i.HAL_IncTick                            0x080018c4   Section        0  stm32f1xx_hal.o(i.HAL_IncTick)
    i.HAL_Init                               0x080018d4   Section        0  stm32f1xx_hal.o(i.HAL_Init)
    i.HAL_InitTick                           0x080018f8   Section        0  stm32f1xx_hal.o(i.HAL_InitTick)
    i.HAL_MspInit                            0x08001938   Section        0  stm32f1xx_hal_msp.o(i.HAL_MspInit)
    i.HAL_NVIC_SetPriority                   0x08001974   Section        0  stm32f1xx_hal_cortex.o(i.HAL_NVIC_SetPriority)
    i.HAL_NVIC_SetPriorityGrouping           0x080019b4   Section        0  stm32f1xx_hal_cortex.o(i.HAL_NVIC_SetPriorityGrouping)
    i.HAL_RCC_ClockConfig                    0x080019d8   Section        0  stm32f1xx_hal_rcc.o(i.HAL_RCC_ClockConfig)
    i.HAL_RCC_GetSysClockFreq                0x08001b04   Section        0  stm32f1xx_hal_rcc.o(i.HAL_RCC_GetSysClockFreq)
    i.HAL_RCC_OscConfig                      0x08001b50   Section        0  stm32f1xx_hal_rcc.o(i.HAL_RCC_OscConfig)
    i.HAL_SYSTICK_Config                     0x08001e70   Section        0  stm32f1xx_hal_cortex.o(i.HAL_SYSTICK_Config)
    i.HardFault_Handler                      0x08001e98   Section        0  stm32f1xx_it.o(i.HardFault_Handler)
    i.MX_GPIO_Init                           0x08001e9a   Section        0  gpio.o(i.MX_GPIO_Init)
    i.MemManage_Handler                      0x08001e9c   Section        0  stm32f1xx_it.o(i.MemManage_Handler)
    i.NMI_Handler                            0x08001e9e   Section        0  stm32f1xx_it.o(i.NMI_Handler)
    i.PendSV_Handler                         0x08001ea0   Section        0  stm32f1xx_it.o(i.PendSV_Handler)
    i.SVC_Handler                            0x08001ea2   Section        0  stm32f1xx_it.o(i.SVC_Handler)
    i.SysTick_Handler                        0x08001ea4   Section        0  stm32f1xx_it.o(i.SysTick_Handler)
    i.SystemClock_Config                     0x08001ea8   Section        0  main.o(i.SystemClock_Config)
    i.SystemInit                             0x08001f06   Section        0  system_stm32f1xx_1.o(i.SystemInit)
    i.UsageFault_Handler                     0x08001f08   Section        0  stm32f1xx_it.o(i.UsageFault_Handler)
    i.__ARM_fpclassify                       0x08001f0a   Section        0  fpclassify.o(i.__ARM_fpclassify)
    i.__NVIC_SetPriority                     0x08001f32   Section        0  stm32f1xx_hal_cortex.o(i.__NVIC_SetPriority)
    __NVIC_SetPriority                       0x08001f33   Thumb Code    32  stm32f1xx_hal_cortex.o(i.__NVIC_SetPriority)
    i.__fetch_font_size                      0x08001f54   Section        0  ccgraphic_textconfig.o(i.__fetch_font_size)
    i.__helper_on_set_text                   0x08001f7a   Section        0  test_all.o(i.__helper_on_set_text)
    __helper_on_set_text                     0x08001f7b   Thumb Code    30  test_all.o(i.__helper_on_set_text)
    i.__kernel_poly                          0x08001f98   Section        0  poly.o(i.__kernel_poly)
    i.__mathlib_dbl_infnan                   0x08002042   Section        0  dunder.o(i.__mathlib_dbl_infnan)
    i.__mathlib_dbl_infnan2                  0x08002048   Section        0  dunder.o(i.__mathlib_dbl_infnan2)
    i.__mathlib_dbl_underflow                0x0800204c   Section        0  dunder.o(i.__mathlib_dbl_underflow)
    i.__on_fetch_oled_table                  0x0800205c   Section        0  oled_base_driver_ssd1309.o(i.__on_fetch_oled_table)
    __on_fetch_oled_table                    0x0800205d   Thumb Code    18  oled_base_driver_ssd1309.o(i.__on_fetch_oled_table)
    i.__pvt_BresenhamMethod_line             0x0800206e   Section        0  ccgraphic_line.o(i.__pvt_BresenhamMethod_line)
    i.__pvt_append_text                      0x08002180   Section        0  ccgraphic_textedit.o(i.__pvt_append_text)
    __pvt_append_text                        0x08002181   Thumb Code    20  ccgraphic_textedit.o(i.__pvt_append_text)
    i.__pvt_backParent                       0x08002194   Section        0  ccgraphic_menu.o(i.__pvt_backParent)
    __pvt_backParent                         0x08002195   Thumb Code    62  ccgraphic_menu.o(i.__pvt_backParent)
    i.__pvt_clear_text                       0x080021d2   Section        0  ccgraphic_textedit.o(i.__pvt_clear_text)
    __pvt_clear_text                         0x080021d3   Thumb Code    36  ccgraphic_textedit.o(i.__pvt_clear_text)
    i.__pvt_doByStep                         0x080021f6   Section        0  ccgraphic_menu.o(i.__pvt_doByStep)
    __pvt_doByStep                           0x080021f7   Thumb Code    72  ccgraphic_menu.o(i.__pvt_doByStep)
    i.__pvt_do_stepped_animate               0x0800223e   Section        0  ccgraphic_menu.o(i.__pvt_do_stepped_animate)
    i.__pvt_draw_char_each                   0x0800226e   Section        0  ccgraphic_textitem.o(i.__pvt_draw_char_each)
    __pvt_draw_char_each                     0x0800226f   Thumb Code    42  ccgraphic_textitem.o(i.__pvt_draw_char_each)
    i.__pvt_enterSub                         0x08002298   Section        0  ccgraphic_menu.o(i.__pvt_enterSub)
    __pvt_enterSub                           0x08002299   Thumb Code    62  ccgraphic_menu.o(i.__pvt_enterSub)
    i.__pvt_fetch_valid_final_point          0x080022d6   Section        0  ccgraphic_textitem.o(i.__pvt_fetch_valid_final_point)
    __pvt_fetch_valid_final_point            0x080022d7   Thumb Code    92  ccgraphic_textitem.o(i.__pvt_fetch_valid_final_point)
    i.__pvt_hide                             0x08002332   Section        0  ccgraphic_frame.o(i.__pvt_hide)
    __pvt_hide                               0x08002333   Thumb Code   114  ccgraphic_frame.o(i.__pvt_hide)
    i.__pvt_hide                             0x080023a4   Section        0  ccgraphic_textedit.o(i.__pvt_hide)
    __pvt_hide                               0x080023a5   Thumb Code    32  ccgraphic_textedit.o(i.__pvt_hide)
    i.__pvt_hideIcon                         0x080023c4   Section        0  ccgraphic_menu.o(i.__pvt_hideIcon)
    __pvt_hideIcon                           0x080023c5   Thumb Code    84  ccgraphic_menu.o(i.__pvt_hideIcon)
    i.__pvt_hide_CCGraphic_Menu              0x08002418   Section        0  ccgraphic_menu.o(i.__pvt_hide_CCGraphic_Menu)
    i.__pvt_init_soft_spi_gpio_init          0x08002440   Section        0  soft_spi.o(i.__pvt_init_soft_spi_gpio_init)
    __pvt_init_soft_spi_gpio_init            0x08002441   Thumb Code   196  soft_spi.o(i.__pvt_init_soft_spi_gpio_init)
    i.__pvt_is_in_angle                      0x08002508   Section        0  ccgraphic_arc.o(i.__pvt_is_in_angle)
    __pvt_is_in_angle                        0x08002509   Thumb Code    86  ccgraphic_arc.o(i.__pvt_is_in_angle)
    i.__pvt_is_in_triangle                   0x0800256c   Section        0  ccgraphic_triangle.o(i.__pvt_is_in_triangle)
    __pvt_is_in_triangle                     0x0800256d   Thumb Code   118  ccgraphic_triangle.o(i.__pvt_is_in_triangle)
    i.__pvt_newLine_text                     0x080025e2   Section        0  ccgraphic_textedit.o(i.__pvt_newLine_text)
    __pvt_newLine_text                       0x080025e3   Thumb Code    38  ccgraphic_textedit.o(i.__pvt_newLine_text)
    i.__pvt_oled_set_cursor                  0x08002608   Section        0  oled_base_driver_ssd1309.o(i.__pvt_oled_set_cursor)
    i.__pvt_providePoint                     0x0800263a   Section        0  ccgraphic_menu.o(i.__pvt_providePoint)
    __pvt_providePoint                       0x0800263b   Thumb Code    16  ccgraphic_menu.o(i.__pvt_providePoint)
    i.__pvt_provideSize                      0x0800264a   Section        0  ccgraphic_menu.o(i.__pvt_provideSize)
    __pvt_provideSize                        0x0800264b   Thumb Code    24  ccgraphic_menu.o(i.__pvt_provideSize)
    i.__pvt_relocate                         0x08002662   Section        0  ccgraphic_textedit.o(i.__pvt_relocate)
    __pvt_relocate                           0x08002663   Thumb Code    26  ccgraphic_textedit.o(i.__pvt_relocate)
    i.__pvt_send_command                     0x0800267c   Section        0  soft_spi.o(i.__pvt_send_command)
    __pvt_send_command                       0x0800267d   Thumb Code    96  soft_spi.o(i.__pvt_send_command)
    i.__pvt_send_data                        0x080026dc   Section        0  soft_spi.o(i.__pvt_send_data)
    __pvt_send_data                          0x080026dd   Thumb Code   118  soft_spi.o(i.__pvt_send_data)
    i.__pvt_setAnimationShowState            0x08002752   Section        0  ccgraphic_menu.o(i.__pvt_setAnimationShowState)
    __pvt_setAnimationShowState              0x08002753   Thumb Code    44  ccgraphic_menu.o(i.__pvt_setAnimationShowState)
    i.__pvt_setAnimationShowState_wrapper    0x0800277e   Section        0  ccgraphic_menu.o(i.__pvt_setAnimationShowState_wrapper)
    __pvt_setAnimationShowState_wrapper      0x0800277f   Thumb Code    12  ccgraphic_menu.o(i.__pvt_setAnimationShowState_wrapper)
    i.__pvt_setIcon                          0x0800278a   Section        0  ccgraphic_menu.o(i.__pvt_setIcon)
    __pvt_setIcon                            0x0800278b   Thumb Code    54  ccgraphic_menu.o(i.__pvt_setIcon)
    i.__pvt_setText                          0x080027c0   Section        0  ccgraphic_textedit.o(i.__pvt_setText)
    __pvt_setText                            0x080027c1   Thumb Code    36  ccgraphic_textedit.o(i.__pvt_setText)
    i.__pvt_should_be_next_line              0x080027e4   Section        0  ccgraphic_textitem.o(i.__pvt_should_be_next_line)
    __pvt_should_be_next_line                0x080027e5   Thumb Code    50  ccgraphic_textitem.o(i.__pvt_should_be_next_line)
    i.__pvt_show                             0x0800281c   Section        0  ccgraphic_frame.o(i.__pvt_show)
    __pvt_show                               0x0800281d   Thumb Code    82  ccgraphic_frame.o(i.__pvt_show)
    i.__pvt_show                             0x0800286e   Section        0  ccgraphic_textedit.o(i.__pvt_show)
    __pvt_show                               0x0800286f   Thumb Code    30  ccgraphic_textedit.o(i.__pvt_show)
    i.__pvt_showIcon                         0x0800288c   Section        0  ccgraphic_menu.o(i.__pvt_showIcon)
    __pvt_showIcon                           0x0800288d   Thumb Code   106  ccgraphic_menu.o(i.__pvt_showIcon)
    i.__pvt_show_CCGraphic_Menu              0x080028f6   Section        0  ccgraphic_menu.o(i.__pvt_show_CCGraphic_Menu)
    i.__pvt_show_textEditOnly                0x080028fc   Section        0  ccgraphic_menu.o(i.__pvt_show_textEditOnly)
    i.__pvt_switchIndex                      0x08002948   Section        0  ccgraphic_menu.o(i.__pvt_switchIndex)
    __pvt_switchIndex                        0x08002949   Thumb Code   128  ccgraphic_menu.o(i.__pvt_switchIndex)
    i.__pvt_update                           0x080029c8   Section        0  ccgraphic_frame.o(i.__pvt_update)
    __pvt_update                             0x080029c9   Thumb Code     6  ccgraphic_frame.o(i.__pvt_update)
    i.__pvt_update                           0x080029ce   Section        0  ccgraphic_menu.o(i.__pvt_update)
    __pvt_update                             0x080029cf   Thumb Code     6  ccgraphic_menu.o(i.__pvt_update)
    i.__pvt_update_text                      0x080029d4   Section        0  ccgraphic_textedit.o(i.__pvt_update_text)
    __pvt_update_text                        0x080029d5   Thumb Code     6  ccgraphic_textedit.o(i.__pvt_update_text)
    i.__register_paintdevice                 0x080029dc   Section        0  ccgraphic_device_adapter.o(i.__register_paintdevice)
    i.__select_from_ascii_font_size          0x08002a50   Section        0  ccgraphic_textconfig.o(i.__select_from_ascii_font_size)
    i.__test_common                          0x08002a7c   Section        0  test_all.o(i.__test_common)
    __test_common                            0x08002a7d   Thumb Code   412  test_all.o(i.__test_common)
    i.atan                                   0x08002dc0   Section        0  atan.o(i.atan)
    i.atan2                                  0x08002fe0   Section        0  atan2.o(i.atan2)
    i.clear_area_device_oled                 0x0800317c   Section        0  ccgraphic_device_oled_adapter.o(i.clear_area_device_oled)
    i.clear_device_oled                      0x0800318a   Section        0  ccgraphic_device_oled_adapter.o(i.clear_device_oled)
    i.close_device_oled                      0x08003190   Section        0  ccgraphic_device_oled_adapter.o(i.close_device_oled)
    i.close_oled                             0x08003196   Section        0  oled_base_driver_ssd1309.o(i.close_oled)
    i.draw_area_device_oled                  0x080031aa   Section        0  ccgraphic_device_oled_adapter.o(i.draw_area_device_oled)
    i.find_int16max                          0x080031bc   Section        0  ccgraphic_utils.o(i.find_int16max)
    i.find_int16min                          0x080031dc   Section        0  ccgraphic_utils.o(i.find_int16min)
    i.init_device_oled                       0x080031fc   Section        0  ccgraphic_device_oled_adapter.o(i.init_device_oled)
    i.main                                   0x0800320c   Section        0  main.o(i.main)
    i.max_uint16                             0x08003222   Section        0  ccgraphic_utils.o(i.max_uint16)
    i.min_uint16                             0x0800322a   Section        0  ccgraphic_utils.o(i.min_uint16)
    i.oled_bind_softspi_pack                 0x08003234   Section        0  soft_spi.o(i.oled_bind_softspi_pack)
    i.oled_height                            0x08003278   Section        0  oled_base_driver_ssd1309.o(i.oled_height)
    i.oled_helper_clear_area                 0x0800327c   Section        0  oled_base_driver_ssd1309.o(i.oled_helper_clear_area)
    i.oled_helper_clear_frame                0x080032e8   Section        0  oled_base_driver_ssd1309.o(i.oled_helper_clear_frame)
    i.oled_helper_draw_area                  0x080032f8   Section        0  oled_base_driver_ssd1309.o(i.oled_helper_draw_area)
    i.oled_helper_reverse                    0x080033ac   Section        0  oled_base_driver_ssd1309.o(i.oled_helper_reverse)
    i.oled_helper_reversearea                0x080033d8   Section        0  oled_base_driver_ssd1309.o(i.oled_helper_reversearea)
    i.oled_helper_setpixel                   0x08003444   Section        0  oled_base_driver_ssd1309.o(i.oled_helper_setpixel)
    i.oled_helper_update                     0x08003470   Section        0  oled_base_driver_ssd1309.o(i.oled_helper_update)
    i.oled_helper_update_area                0x080034a8   Section        0  oled_base_driver_ssd1309.o(i.oled_helper_update_area)
    i.oled_init_softspi_handle               0x08003528   Section        0  oled_base_driver_ssd1309.o(i.oled_init_softspi_handle)
    i.oled_soft_spi_setup                    0x08003568   Section        0  soft_spi_fast_setup.o(i.oled_soft_spi_setup)
    i.oled_support_rgb                       0x080035ac   Section        0  oled_base_driver_ssd1309.o(i.oled_support_rgb)
    i.oled_width                             0x080035b0   Section        0  oled_base_driver_ssd1309.o(i.oled_width)
    i.on_test_component_frame_test           0x080035b4   Section        0  graphoc_test_components.o(i.on_test_component_frame_test)
    i.on_test_component_menu                 0x080035e0   Section        0  graphoc_test_components.o(i.on_test_component_menu)
    i.on_test_component_textEdit_test        0x0800376c   Section        0  graphoc_test_components.o(i.on_test_component_textEdit_test)
    i.on_test_draw_arc                       0x080038e4   Section        0  graphic_test_base.o(i.on_test_draw_arc)
    i.on_test_draw_ascii                     0x08003914   Section        0  graphic_test_widget.o(i.on_test_draw_ascii)
    i.on_test_draw_circle                    0x08003a18   Section        0  graphic_test_base.o(i.on_test_draw_circle)
    i.on_test_draw_ellipse                   0x08003a5e   Section        0  graphic_test_base.o(i.on_test_draw_ellipse)
    i.on_test_draw_image                     0x08003aa8   Section        0  graphic_test_widget.o(i.on_test_draw_image)
    i.on_test_draw_line                      0x08003ae4   Section        0  graphic_test_base.o(i.on_test_draw_line)
    i.on_test_draw_points                    0x08003b6a   Section        0  graphic_test_base.o(i.on_test_draw_points)
    i.on_test_draw_rectangle                 0x08003b9c   Section        0  graphic_test_base.o(i.on_test_draw_rectangle)
    i.on_test_draw_triangle                  0x08003bf4   Section        0  graphic_test_base.o(i.on_test_draw_triangle)
    i.on_test_init_softspi_oled              0x08003c30   Section        0  graphic_test_device.o(i.on_test_init_softspi_oled)
    i.open_device_oled                       0x08003c34   Section        0  ccgraphic_device_oled_adapter.o(i.open_device_oled)
    i.open_oled                              0x08003c3a   Section        0  oled_base_driver_ssd1309.o(i.open_oled)
    i.property_fetcher_device_oled           0x08003c4e   Section        0  ccgraphic_device_oled_adapter.o(i.property_fetcher_device_oled)
    i.reverse_device_oled                    0x08003c78   Section        0  ccgraphic_device_oled_adapter.o(i.reverse_device_oled)
    i.reversearea_device_oled                0x08003c7e   Section        0  ccgraphic_device_oled_adapter.o(i.reversearea_device_oled)
    i.set_property_device_oled               0x08003c8c   Section        0  ccgraphic_device_oled_adapter.o(i.set_property_device_oled)
    i.set_property_oled                      0x08003c92   Section        0  oled_base_driver_ssd1309.o(i.set_property_oled)
    i.setpixel_device_oled                   0x08003c94   Section        0  ccgraphic_device_oled_adapter.o(i.setpixel_device_oled)
    i.swap_int16                             0x08003c9a   Section        0  ccgraphic_utils.o(i.swap_int16)
    i.test_clear                             0x08003cb8   Section        0  oled_test.o(i.test_clear)
    i.test_graphic_softspi_functionalities   0x08003cca   Section        0  test_all.o(i.test_graphic_softspi_functionalities)
    i.test_oled_spi_functionalities          0x08003cde   Section        0  test_all.o(i.test_oled_spi_functionalities)
    i.test_set_pixel_line                    0x08003d18   Section        0  oled_test.o(i.test_set_pixel_line)
    i.update_area_device_oled                0x08003d44   Section        0  ccgraphic_device_oled_adapter.o(i.update_area_device_oled)
    i.update_device_oled                     0x08003d52   Section        0  ccgraphic_device_oled_adapter.o(i.update_device_oled)
    i.user_init_soft_spi_oled_handle         0x08003d58   Section        0  oled_test_soft_spi.o(i.user_init_soft_spi_oled_handle)
    x$fpl$d2f                                0x08003d8c   Section       98  d2f.o(x$fpl$d2f)
    x$fpl$dadd                               0x08003df0   Section      336  daddsub_clz.o(x$fpl$dadd)
    _dadd1                                   0x08003e01   Thumb Code     0  daddsub_clz.o(x$fpl$dadd)
    x$fpl$dcheck1                            0x08003f40   Section       16  dcheck1.o(x$fpl$dcheck1)
    x$fpl$dcmpinf                            0x08003f50   Section       24  dcmpi.o(x$fpl$dcmpinf)
    x$fpl$ddiv                               0x08003f68   Section      688  ddiv.o(x$fpl$ddiv)
    ddiv_entry                               0x08003f6f   Thumb Code     0  ddiv.o(x$fpl$ddiv)
    x$fpl$deqf                               0x08004218   Section      120  deqf.o(x$fpl$deqf)
    x$fpl$dfix                               0x08004290   Section       94  dfix.o(x$fpl$dfix)
    x$fpl$dflt                               0x080042ee   Section       46  dflt_clz.o(x$fpl$dflt)
    x$fpl$dfltu                              0x0800431c   Section       38  dflt_clz.o(x$fpl$dfltu)
    x$fpl$dleqf                              0x08004344   Section      120  dleqf.o(x$fpl$dleqf)
    x$fpl$dmul                               0x080043bc   Section      340  dmul.o(x$fpl$dmul)
    x$fpl$dnaninf                            0x08004510   Section      156  dnaninf.o(x$fpl$dnaninf)
    x$fpl$dretinf                            0x080045ac   Section       12  dretinf.o(x$fpl$dretinf)
    x$fpl$drsb                               0x080045b8   Section       22  daddsub_clz.o(x$fpl$drsb)
    x$fpl$dsub                               0x080045d0   Section      468  daddsub_clz.o(x$fpl$dsub)
    _dsub1                                   0x080045e1   Thumb Code     0  daddsub_clz.o(x$fpl$dsub)
    x$fpl$fadd                               0x080047a4   Section      196  faddsub_clz.o(x$fpl$fadd)
    _fadd1                                   0x080047b3   Thumb Code     0  faddsub_clz.o(x$fpl$fadd)
    x$fpl$fflt                               0x08004868   Section       48  fflt_clz.o(x$fpl$fflt)
    x$fpl$fnaninf                            0x08004898   Section      140  fnaninf.o(x$fpl$fnaninf)
    x$fpl$fretinf                            0x08004924   Section       10  fretinf.o(x$fpl$fretinf)
    x$fpl$fsub                               0x08004930   Section      234  faddsub_clz.o(x$fpl$fsub)
    _fsub1                                   0x0800493f   Thumb Code     0  faddsub_clz.o(x$fpl$fsub)
    x$fpl$retnan                             0x08004a1a   Section      100  retnan.o(x$fpl$retnan)
    x$fpl$scalbn                             0x08004a7e   Section       92  scalbn.o(x$fpl$scalbn)
    x$fpl$trapveneer                         0x08004ada   Section       48  trapv.o(x$fpl$trapveneer)
    .constdata                               0x08004b0a   Section      570  ascii6x8.source.o(.constdata)
    x$fpl$usenofp                            0x08004b0a   Section        0  usenofp.o(x$fpl$usenofp)
    .constdata                               0x08004d44   Section     1520  ascii8x16.source.o(.constdata)
    .constdata                               0x08005334   Section       23  oled_base_driver_ssd1309.o(.constdata)
    .constdata                               0x0800534b   Section       32  test_image.o(.constdata)
    .constdata                               0x0800536b   Section       32  test_image.o(.constdata)
    .constdata                               0x0800538b   Section       32  test_image.o(.constdata)
    .constdata                               0x080053ab   Section       32  test_image.o(.constdata)
    .constdata                               0x080053cb   Section       32  test_image.o(.constdata)
    .constdata                               0x080053eb   Section       18  stm32f1xx_hal_rcc.o(.constdata)
    aPredivFactorTable                       0x080053eb   Data           2  stm32f1xx_hal_rcc.o(.constdata)
    aPLLMULFactorTable                       0x080053ed   Data          16  stm32f1xx_hal_rcc.o(.constdata)
    .constdata                               0x080053fd   Section       16  system_stm32f1xx_1.o(.constdata)
    .constdata                               0x08005410   Section      152  atan.o(.constdata)
    atanhi                                   0x08005410   Data          32  atan.o(.constdata)
    atanlo                                   0x08005430   Data          32  atan.o(.constdata)
    aTodd                                    0x08005450   Data          40  atan.o(.constdata)
    aTeven                                   0x08005478   Data          48  atan.o(.constdata)
    .constdata                               0x080054a8   Section        8  qnan.o(.constdata)
    .conststring                             0x080054b0   Section       52  graphoc_test_components.o(.conststring)
    .conststring                             0x080054e4   Section       93  test_all.o(.conststring)
    .data                                    0x20000000   Section      144  graphoc_test_components.o(.data)
    .data                                    0x20000090   Section       40  oled_test_soft_spi.o(.data)
    sda                                      0x20000090   Data           8  oled_test_soft_spi.o(.data)
    scl                                      0x20000098   Data           8  oled_test_soft_spi.o(.data)
    res                                      0x200000a0   Data           8  oled_test_soft_spi.o(.data)
    dc                                       0x200000a8   Data           8  oled_test_soft_spi.o(.data)
    cs                                       0x200000b0   Data           8  oled_test_soft_spi.o(.data)
    .data                                    0x200000b8   Section       56  soft_spi_fast_setup.o(.data)
    sda                                      0x200000b8   Data           8  soft_spi_fast_setup.o(.data)
    scl                                      0x200000c0   Data           8  soft_spi_fast_setup.o(.data)
    res                                      0x200000c8   Data           8  soft_spi_fast_setup.o(.data)
    dc                                       0x200000d0   Data           8  soft_spi_fast_setup.o(.data)
    cs                                       0x200000d8   Data           8  soft_spi_fast_setup.o(.data)
    .data                                    0x200000f0   Section       12  stm32f1xx_hal.o(.data)
    .data                                    0x200000fc   Section        4  system_stm32f1xx_1.o(.data)
    .bss                                     0x20000100   Section      160  graphoc_test_components.o(.bss)
    .bss                                     0x200001a0   Section     1152  oled_base_driver_ssd1309.o(.bss)
    .bss                                     0x20000620   Section       48  oled_test_soft_spi.o(.bss)
    .bss                                     0x20000650   Section       48  soft_spi_fast_setup.o(.bss)
    .bss                                     0x20000680   Section       96  libspace.o(.bss)
    HEAP                                     0x200006e0   Section      512  startup_stm32f103xe.o(HEAP)
    Heap_Mem                                 0x200006e0   Data         512  startup_stm32f103xe.o(HEAP)
    STACK                                    0x200008e0   Section     1024  startup_stm32f103xe.o(STACK)
    Stack_Mem                                0x200008e0   Data        1024  startup_stm32f103xe.o(STACK)
    __initial_sp                             0x20000ce0   Data           0  startup_stm32f103xe.o(STACK)

    Global Symbols

    Symbol Name                              Value     Ov Type        Size  Object(Section)

    BuildAttributes$$THM_ISAv4$P$D$K$B$S$PE$A:L22UL41UL21$X:L11$S22US41US21$IEEE1$IW$USESV6$~STKCKD$USESV7$~SHL$OTIME$ROPI$IEEEX$EBA8$UX$STANDARDLIB$REQ8$PRES8$EABIv2 0x00000000   Number         0  anon$$obj.o ABSOLUTE
    __ARM_use_no_argv                        0x00000000   Number         0  main.o ABSOLUTE
    __ARM_exceptions_init                     - Undefined Weak Reference
    __alloca_initialize                       - Undefined Weak Reference
    __arm_fini_                               - Undefined Weak Reference
    __arm_preinit_                            - Undefined Weak Reference
    __cpp_initialize__aeabi_                  - Undefined Weak Reference
    __cxa_finalize                            - Undefined Weak Reference
    __rt_locale                               - Undefined Weak Reference
    __sigvec_lookup                           - Undefined Weak Reference
    _atexit_init                              - Undefined Weak Reference
    _call_atexit_fns                          - Undefined Weak Reference
    _clock_init                               - Undefined Weak Reference
    _fp_trap_init                             - Undefined Weak Reference
    _fp_trap_shutdown                         - Undefined Weak Reference
    _get_lc_collate                           - Undefined Weak Reference
    _get_lc_ctype                             - Undefined Weak Reference
    _get_lc_monetary                          - Undefined Weak Reference
    _get_lc_numeric                           - Undefined Weak Reference
    _get_lc_time                              - Undefined Weak Reference
    _getenv_init                              - Undefined Weak Reference
    _handle_redirection                       - Undefined Weak Reference
    _init_alloc                               - Undefined Weak Reference
    _init_user_alloc                          - Undefined Weak Reference
    _initio                                   - Undefined Weak Reference
    _printf_post_padding                      - Undefined Weak Reference
    _printf_pre_padding                       - Undefined Weak Reference
    _printf_truncate_signed                   - Undefined Weak Reference
    _printf_truncate_unsigned                 - Undefined Weak Reference
    _rand_init                                - Undefined Weak Reference
    _signal_finish                            - Undefined Weak Reference
    _signal_init                              - Undefined Weak Reference
    _terminate_alloc                          - Undefined Weak Reference
    _terminate_user_alloc                     - Undefined Weak Reference
    _terminateio                              - Undefined Weak Reference
    __Vectors_Size                           0x00000130   Number         0  startup_stm32f103xe.o ABSOLUTE
    __Vectors                                0x08000000   Data           4  startup_stm32f103xe.o(RESET)
    __Vectors_End                            0x08000130   Data           0  startup_stm32f103xe.o(RESET)
    __main                                   0x08000131   Thumb Code     8  __main.o(!!!main)
    __scatterload                            0x08000139   Thumb Code     0  __scatter.o(!!!scatter)
    __scatterload_rt2                        0x08000139   Thumb Code    44  __scatter.o(!!!scatter)
    __scatterload_rt2_thumb_only             0x08000139   Thumb Code     0  __scatter.o(!!!scatter)
    __scatterload_null                       0x08000147   Thumb Code     0  __scatter.o(!!!scatter)
    __scatterload_copy                       0x0800016d   Thumb Code    26  __scatter_copy.o(!!handler_copy)
    __scatterload_zeroinit                   0x08000189   Thumb Code    28  __scatter_zi.o(!!handler_zi)
    _printf_d                                0x080001a5   Thumb Code     0  _printf_d.o(.ARM.Collect$$_printf_percent$$00000009)
    _printf_percent                          0x080001a5   Thumb Code     0  _printf_percent.o(.ARM.Collect$$_printf_percent$$00000000)
    _printf_percent_end                      0x080001ab   Thumb Code     0  _printf_percent_end.o(.ARM.Collect$$_printf_percent$$00000017)
    __rt_lib_init                            0x080001af   Thumb Code     0  libinit.o(.ARM.Collect$$libinit$$00000000)
    __rt_lib_init_alloca_1                   0x080001b1   Thumb Code     0  libinit2.o(.ARM.Collect$$libinit$$0000002E)
    __rt_lib_init_argv_1                     0x080001b1   Thumb Code     0  libinit2.o(.ARM.Collect$$libinit$$0000002C)
    __rt_lib_init_atexit_1                   0x080001b1   Thumb Code     0  libinit2.o(.ARM.Collect$$libinit$$0000001B)
    __rt_lib_init_clock_1                    0x080001b1   Thumb Code     0  libinit2.o(.ARM.Collect$$libinit$$00000021)
    __rt_lib_init_cpp_1                      0x080001b1   Thumb Code     0  libinit2.o(.ARM.Collect$$libinit$$00000032)
    __rt_lib_init_exceptions_1               0x080001b1   Thumb Code     0  libinit2.o(.ARM.Collect$$libinit$$00000030)
    __rt_lib_init_fp_1                       0x080001b1   Thumb Code     0  libinit2.o(.ARM.Collect$$libinit$$00000002)
    __rt_lib_init_fp_trap_1                  0x080001b1   Thumb Code     0  libinit2.o(.ARM.Collect$$libinit$$0000001F)
    __rt_lib_init_getenv_1                   0x080001b1   Thumb Code     0  libinit2.o(.ARM.Collect$$libinit$$00000023)
    __rt_lib_init_heap_1                     0x080001b1   Thumb Code     0  libinit2.o(.ARM.Collect$$libinit$$0000000A)
    __rt_lib_init_lc_collate_1               0x080001b1   Thumb Code     0  libinit2.o(.ARM.Collect$$libinit$$00000011)
    __rt_lib_init_lc_ctype_1                 0x080001b1   Thumb Code     0  libinit2.o(.ARM.Collect$$libinit$$00000013)
    __rt_lib_init_lc_monetary_1              0x080001b1   Thumb Code     0  libinit2.o(.ARM.Collect$$libinit$$00000015)
    __rt_lib_init_lc_numeric_1               0x080001b1   Thumb Code     0  libinit2.o(.ARM.Collect$$libinit$$00000017)
    __rt_lib_init_lc_time_1                  0x080001b1   Thumb Code     0  libinit2.o(.ARM.Collect$$libinit$$00000019)
    __rt_lib_init_preinit_1                  0x080001b1   Thumb Code     0  libinit2.o(.ARM.Collect$$libinit$$00000004)
    __rt_lib_init_rand_1                     0x080001b1   Thumb Code     0  libinit2.o(.ARM.Collect$$libinit$$0000000E)
    __rt_lib_init_return                     0x080001b1   Thumb Code     0  libinit2.o(.ARM.Collect$$libinit$$00000033)
    __rt_lib_init_signal_1                   0x080001b1   Thumb Code     0  libinit2.o(.ARM.Collect$$libinit$$0000001D)
    __rt_lib_init_stdio_1                    0x080001b1   Thumb Code     0  libinit2.o(.ARM.Collect$$libinit$$00000025)
    __rt_lib_init_user_alloc_1               0x080001b1   Thumb Code     0  libinit2.o(.ARM.Collect$$libinit$$0000000C)
    __rt_lib_shutdown                        0x080001b3   Thumb Code     0  libshutdown.o(.ARM.Collect$$libshutdown$$00000000)
    __rt_lib_shutdown_cpp_1                  0x080001b5   Thumb Code     0  libshutdown2.o(.ARM.Collect$$libshutdown$$00000004)
    __rt_lib_shutdown_fini_1                 0x080001b5   Thumb Code     0  libshutdown2.o(.ARM.Collect$$libshutdown$$00000002)
    __rt_lib_shutdown_fp_trap_1              0x080001b5   Thumb Code     0  libshutdown2.o(.ARM.Collect$$libshutdown$$00000009)
    __rt_lib_shutdown_heap_1                 0x080001b5   Thumb Code     0  libshutdown2.o(.ARM.Collect$$libshutdown$$00000011)
    __rt_lib_shutdown_return                 0x080001b5   Thumb Code     0  libshutdown2.o(.ARM.Collect$$libshutdown$$00000012)
    __rt_lib_shutdown_signal_1               0x080001b5   Thumb Code     0  libshutdown2.o(.ARM.Collect$$libshutdown$$0000000C)
    __rt_lib_shutdown_stdio_1                0x080001b5   Thumb Code     0  libshutdown2.o(.ARM.Collect$$libshutdown$$00000006)
    __rt_lib_shutdown_user_alloc_1           0x080001b5   Thumb Code     0  libshutdown2.o(.ARM.Collect$$libshutdown$$0000000E)
    __rt_entry                               0x080001b7   Thumb Code     0  __rtentry.o(.ARM.Collect$$rtentry$$00000000)
    __rt_entry_presh_1                       0x080001b7   Thumb Code     0  __rtentry2.o(.ARM.Collect$$rtentry$$00000002)
    __rt_entry_sh                            0x080001b7   Thumb Code     0  __rtentry4.o(.ARM.Collect$$rtentry$$00000004)
    __rt_entry_li                            0x080001bd   Thumb Code     0  __rtentry2.o(.ARM.Collect$$rtentry$$0000000A)
    __rt_entry_postsh_1                      0x080001bd   Thumb Code     0  __rtentry2.o(.ARM.Collect$$rtentry$$00000009)
    __rt_entry_main                          0x080001c1   Thumb Code     0  __rtentry2.o(.ARM.Collect$$rtentry$$0000000D)
    __rt_entry_postli_1                      0x080001c1   Thumb Code     0  __rtentry2.o(.ARM.Collect$$rtentry$$0000000C)
    __rt_exit                                0x080001c9   Thumb Code     0  rtexit.o(.ARM.Collect$$rtexit$$00000000)
    __rt_exit_ls                             0x080001cb   Thumb Code     0  rtexit2.o(.ARM.Collect$$rtexit$$00000003)
    __rt_exit_prels_1                        0x080001cb   Thumb Code     0  rtexit2.o(.ARM.Collect$$rtexit$$00000002)
    __rt_exit_exit                           0x080001cf   Thumb Code     0  rtexit2.o(.ARM.Collect$$rtexit$$00000004)
    Reset_Handler                            0x080001d5   Thumb Code     8  startup_stm32f103xe.o(.text)
    ADC1_2_IRQHandler                        0x080001ef   Thumb Code     0  startup_stm32f103xe.o(.text)
    ADC3_IRQHandler                          0x080001ef   Thumb Code     0  startup_stm32f103xe.o(.text)
    CAN1_RX1_IRQHandler                      0x080001ef   Thumb Code     0  startup_stm32f103xe.o(.text)
    CAN1_SCE_IRQHandler                      0x080001ef   Thumb Code     0  startup_stm32f103xe.o(.text)
    DMA1_Channel1_IRQHandler                 0x080001ef   Thumb Code     0  startup_stm32f103xe.o(.text)
    DMA1_Channel2_IRQHandler                 0x080001ef   Thumb Code     0  startup_stm32f103xe.o(.text)
    DMA1_Channel3_IRQHandler                 0x080001ef   Thumb Code     0  startup_stm32f103xe.o(.text)
    DMA1_Channel4_IRQHandler                 0x080001ef   Thumb Code     0  startup_stm32f103xe.o(.text)
    DMA1_Channel5_IRQHandler                 0x080001ef   Thumb Code     0  startup_stm32f103xe.o(.text)
    DMA1_Channel6_IRQHandler                 0x080001ef   Thumb Code     0  startup_stm32f103xe.o(.text)
    DMA1_Channel7_IRQHandler                 0x080001ef   Thumb Code     0  startup_stm32f103xe.o(.text)
    DMA2_Channel1_IRQHandler                 0x080001ef   Thumb Code     0  startup_stm32f103xe.o(.text)
    DMA2_Channel2_IRQHandler                 0x080001ef   Thumb Code     0  startup_stm32f103xe.o(.text)
    DMA2_Channel3_IRQHandler                 0x080001ef   Thumb Code     0  startup_stm32f103xe.o(.text)
    DMA2_Channel4_5_IRQHandler               0x080001ef   Thumb Code     0  startup_stm32f103xe.o(.text)
    EXTI0_IRQHandler                         0x080001ef   Thumb Code     0  startup_stm32f103xe.o(.text)
    EXTI15_10_IRQHandler                     0x080001ef   Thumb Code     0  startup_stm32f103xe.o(.text)
    EXTI1_IRQHandler                         0x080001ef   Thumb Code     0  startup_stm32f103xe.o(.text)
    EXTI2_IRQHandler                         0x080001ef   Thumb Code     0  startup_stm32f103xe.o(.text)
    EXTI3_IRQHandler                         0x080001ef   Thumb Code     0  startup_stm32f103xe.o(.text)
    EXTI4_IRQHandler                         0x080001ef   Thumb Code     0  startup_stm32f103xe.o(.text)
    EXTI9_5_IRQHandler                       0x080001ef   Thumb Code     0  startup_stm32f103xe.o(.text)
    FLASH_IRQHandler                         0x080001ef   Thumb Code     0  startup_stm32f103xe.o(.text)
    FSMC_IRQHandler                          0x080001ef   Thumb Code     0  startup_stm32f103xe.o(.text)
    I2C1_ER_IRQHandler                       0x080001ef   Thumb Code     0  startup_stm32f103xe.o(.text)
    I2C1_EV_IRQHandler                       0x080001ef   Thumb Code     0  startup_stm32f103xe.o(.text)
    I2C2_ER_IRQHandler                       0x080001ef   Thumb Code     0  startup_stm32f103xe.o(.text)
    I2C2_EV_IRQHandler                       0x080001ef   Thumb Code     0  startup_stm32f103xe.o(.text)
    PVD_IRQHandler                           0x080001ef   Thumb Code     0  startup_stm32f103xe.o(.text)
    RCC_IRQHandler                           0x080001ef   Thumb Code     0  startup_stm32f103xe.o(.text)
    RTC_Alarm_IRQHandler                     0x080001ef   Thumb Code     0  startup_stm32f103xe.o(.text)
    RTC_IRQHandler                           0x080001ef   Thumb Code     0  startup_stm32f103xe.o(.text)
    SDIO_IRQHandler                          0x080001ef   Thumb Code     0  startup_stm32f103xe.o(.text)
    SPI1_IRQHandler                          0x080001ef   Thumb Code     0  startup_stm32f103xe.o(.text)
    SPI2_IRQHandler                          0x080001ef   Thumb Code     0  startup_stm32f103xe.o(.text)
    SPI3_IRQHandler                          0x080001ef   Thumb Code     0  startup_stm32f103xe.o(.text)
    TAMPER_IRQHandler                        0x080001ef   Thumb Code     0  startup_stm32f103xe.o(.text)
    TIM1_BRK_IRQHandler                      0x080001ef   Thumb Code     0  startup_stm32f103xe.o(.text)
    TIM1_CC_IRQHandler                       0x080001ef   Thumb Code     0  startup_stm32f103xe.o(.text)
    TIM1_TRG_COM_IRQHandler                  0x080001ef   Thumb Code     0  startup_stm32f103xe.o(.text)
    TIM1_UP_IRQHandler                       0x080001ef   Thumb Code     0  startup_stm32f103xe.o(.text)
    TIM2_IRQHandler                          0x080001ef   Thumb Code     0  startup_stm32f103xe.o(.text)
    TIM3_IRQHandler                          0x080001ef   Thumb Code     0  startup_stm32f103xe.o(.text)
    TIM4_IRQHandler                          0x080001ef   Thumb Code     0  startup_stm32f103xe.o(.text)
    TIM5_IRQHandler                          0x080001ef   Thumb Code     0  startup_stm32f103xe.o(.text)
    TIM6_IRQHandler                          0x080001ef   Thumb Code     0  startup_stm32f103xe.o(.text)
    TIM7_IRQHandler                          0x080001ef   Thumb Code     0  startup_stm32f103xe.o(.text)
    TIM8_BRK_IRQHandler                      0x080001ef   Thumb Code     0  startup_stm32f103xe.o(.text)
    TIM8_CC_IRQHandler                       0x080001ef   Thumb Code     0  startup_stm32f103xe.o(.text)
    TIM8_TRG_COM_IRQHandler                  0x080001ef   Thumb Code     0  startup_stm32f103xe.o(.text)
    TIM8_UP_IRQHandler                       0x080001ef   Thumb Code     0  startup_stm32f103xe.o(.text)
    UART4_IRQHandler                         0x080001ef   Thumb Code     0  startup_stm32f103xe.o(.text)
    UART5_IRQHandler                         0x080001ef   Thumb Code     0  startup_stm32f103xe.o(.text)
    USART1_IRQHandler                        0x080001ef   Thumb Code     0  startup_stm32f103xe.o(.text)
    USART2_IRQHandler                        0x080001ef   Thumb Code     0  startup_stm32f103xe.o(.text)
    USART3_IRQHandler                        0x080001ef   Thumb Code     0  startup_stm32f103xe.o(.text)
    USBWakeUp_IRQHandler                     0x080001ef   Thumb Code     0  startup_stm32f103xe.o(.text)
    USB_HP_CAN1_TX_IRQHandler                0x080001ef   Thumb Code     0  startup_stm32f103xe.o(.text)
    USB_LP_CAN1_RX0_IRQHandler               0x080001ef   Thumb Code     0  startup_stm32f103xe.o(.text)
    WWDG_IRQHandler                          0x080001ef   Thumb Code     0  startup_stm32f103xe.o(.text)
    __user_initial_stackheap                 0x080001f1   Thumb Code     0  startup_stm32f103xe.o(.text)
    __2snprintf                              0x08000215   Thumb Code    48  noretval__2snprintf.o(.text)
    __printf                                 0x08000249   Thumb Code   104  __printf.o(.text)
    _printf_int_dec                          0x080002b1   Thumb Code   104  _printf_dec.o(.text)
    __aeabi_memclr                           0x08000329   Thumb Code     0  rt_memclr.o(.text)
    __rt_memclr                              0x08000329   Thumb Code    68  rt_memclr.o(.text)
    _memset                                  0x0800032d   Thumb Code     0  rt_memclr.o(.text)
    __aeabi_memclr4                          0x0800036d   Thumb Code     0  rt_memclr_w.o(.text)
    __aeabi_memclr8                          0x0800036d   Thumb Code     0  rt_memclr_w.o(.text)
    __rt_memclr_w                            0x0800036d   Thumb Code    78  rt_memclr_w.o(.text)
    _memset_w                                0x08000371   Thumb Code     0  rt_memclr_w.o(.text)
    strcmp                                   0x080003bd   Thumb Code   128  strcmpv7m.o(.text)
    __use_two_region_memory                  0x0800043d   Thumb Code     2  heapauxi.o(.text)
    __rt_heap_escrow$2region                 0x0800043f   Thumb Code     2  heapauxi.o(.text)
    __rt_heap_expand$2region                 0x08000441   Thumb Code     2  heapauxi.o(.text)
    __read_errno                             0x08000443   Thumb Code    10  _rserrno.o(.text)
    __set_errno                              0x0800044d   Thumb Code    12  _rserrno.o(.text)
    _printf_int_common                       0x08000459   Thumb Code   178  _printf_intcommon.o(.text)
    _printf_char_common                      0x08000517   Thumb Code    32  _printf_char_common.o(.text)
    _sputc                                   0x0800053d   Thumb Code    10  _sputc.o(.text)
    _snputc                                  0x08000547   Thumb Code    16  _snputc.o(.text)
    __aeabi_errno_addr                       0x08000559   Thumb Code     8  rt_errno_addr_intlibspace.o(.text)
    __errno$intlibspace                      0x08000559   Thumb Code     0  rt_errno_addr_intlibspace.o(.text)
    __rt_errno_addr$intlibspace              0x08000559   Thumb Code     0  rt_errno_addr_intlibspace.o(.text)
    __user_libspace                          0x08000561   Thumb Code     8  libspace.o(.text)
    __user_perproc_libspace                  0x08000561   Thumb Code     0  libspace.o(.text)
    __user_perthread_libspace                0x08000561   Thumb Code     0  libspace.o(.text)
    __user_setup_stackheap                   0x08000569   Thumb Code    74  sys_stackheap_outer.o(.text)
    exit                                     0x080005b3   Thumb Code    18  exit.o(.text)
    _sys_exit                                0x080005c5   Thumb Code     8  sys_exit.o(.text)
    __I$use$semihosting                      0x080005d1   Thumb Code     0  use_no_semi.o(.text)
    __use_no_semihosting_swi                 0x080005d1   Thumb Code     2  use_no_semi.o(.text)
    BusFault_Handler                         0x080005d3   Thumb Code     2  stm32f1xx_it.o(i.BusFault_Handler)
    __semihosting_library_function           0x080005d3   Thumb Code     0  indicate_semi.o(.text)
    CCGraphicWidget_AsciiTextItem_on_newLine_point 0x080005d5   Thumb Code    30  ccgraphic_textitem.o(i.CCGraphicWidget_AsciiTextItem_on_newLine_point)
    CCGraphicWidget_AsciiTextItem_relocate   0x080005f3   Thumb Code     6  ccgraphic_textitem.o(i.CCGraphicWidget_AsciiTextItem_relocate)
    CCGraphicWidget_AsciiTextItem_setAsciiText 0x080005f9   Thumb Code     4  ccgraphic_textitem.o(i.CCGraphicWidget_AsciiTextItem_setAsciiText)
    CCGraphicWidget_AsciiTextItem_setIndexedPoint 0x080005fd   Thumb Code     6  ccgraphic_textitem.o(i.CCGraphicWidget_AsciiTextItem_setIndexedPoint)
    CCGraphicWidget_MaxAcceptable_Size       0x08000603   Thumb Code    52  ccgraphicwidget_base.o(i.CCGraphicWidget_MaxAcceptable_Size)
    CCGraphicWidget_drawAsciiTextItem        0x08000639   Thumb Code   164  ccgraphic_textitem.o(i.CCGraphicWidget_drawAsciiTextItem)
    CCGraphicWidget_drawAsciiTextItem_with_finPoint 0x080006e1   Thumb Code   210  ccgraphic_textitem.o(i.CCGraphicWidget_drawAsciiTextItem_with_finPoint)
    CCGraphicWidget_draw_image               0x080007b9   Thumb Code    26  ccgraphic_image.o(i.CCGraphicWidget_draw_image)
    CCGraphicWidget_init_AsciiTextItem       0x080007d5   Thumb Code    14  ccgraphic_textitem.o(i.CCGraphicWidget_init_AsciiTextItem)
    CCGraphicWidget_init_image               0x080007e9   Thumb Code     6  ccgraphic_image.o(i.CCGraphicWidget_init_image)
    CCGraphic_createDeviceFrame              0x080007f1   Thumb Code    70  ccgraphic_frame.o(i.CCGraphic_createDeviceFrame)
    CCGraphic_draw_arc                       0x08000845   Thumb Code   534  ccgraphic_arc.o(i.CCGraphic_draw_arc)
    CCGraphic_draw_circle                    0x08000a5b   Thumb Code   328  ccgraphic_circle.o(i.CCGraphic_draw_circle)
    CCGraphic_draw_ellipse                   0x08000ba5   Thumb Code   674  ccgraphic_ellipse.o(i.CCGraphic_draw_ellipse)
    CCGraphic_draw_line                      0x08000e4d   Thumb Code   132  ccgraphic_line.o(i.CCGraphic_draw_line)
    CCGraphic_draw_point                     0x08000ed1   Thumb Code     8  ccgraphic_point.o(i.CCGraphic_draw_point)
    CCGraphic_draw_rectangle                 0x08000ed9   Thumb Code   104  ccgraphic_rectangle.o(i.CCGraphic_draw_rectangle)
    CCGraphic_drawfilled_circle              0x08000f41   Thumb Code   508  ccgraphic_circle.o(i.CCGraphic_drawfilled_circle)
    CCGraphic_drawfilled_ellipse             0x0800113d   Thumb Code   856  ccgraphic_ellipse.o(i.CCGraphic_drawfilled_ellipse)
    CCGraphic_drawfilled_rectangle           0x08001499   Thumb Code    54  ccgraphic_rectangle.o(i.CCGraphic_drawfilled_rectangle)
    CCGraphic_drawfilled_triangle            0x080014cf   Thumb Code   150  ccgraphic_triangle.o(i.CCGraphic_drawfilled_triangle)
    CCGraphic_init_CCGraphicTextEdit         0x08001565   Thumb Code    42  ccgraphic_textedit.o(i.CCGraphic_init_CCGraphicTextEdit)
    CCGraphic_init_CCGraphic_Arc             0x080015b1   Thumb Code    14  ccgraphic_arc.o(i.CCGraphic_init_CCGraphic_Arc)
    CCGraphic_init_Menu                      0x080015c1   Thumb Code   118  ccgraphic_menu.o(i.CCGraphic_init_Menu)
    CCGraphic_init_circle                    0x08001665   Thumb Code     6  ccgraphic_circle.o(i.CCGraphic_init_circle)
    CCGraphic_init_ellipse                   0x0800166b   Thumb Code     8  ccgraphic_ellipse.o(i.CCGraphic_init_ellipse)
    CCGraphic_init_line                      0x08001673   Thumb Code     6  ccgraphic_line.o(i.CCGraphic_init_line)
    CCGraphic_init_point                     0x08001679   Thumb Code     6  ccgraphic_point.o(i.CCGraphic_init_point)
    CCGraphic_init_rectangle                 0x0800167f   Thumb Code     6  ccgraphic_rectangle.o(i.CCGraphic_init_rectangle)
    CCGraphic_init_triangle                  0x08001685   Thumb Code     8  ccgraphic_triangle.o(i.CCGraphic_init_triangle)
    DebugMon_Handler                         0x0800168d   Thumb Code     2  stm32f1xx_it.o(i.DebugMon_Handler)
    HAL_Delay                                0x08001691   Thumb Code    32  stm32f1xx_hal.o(i.HAL_Delay)
    HAL_GPIO_Init                            0x080016b5   Thumb Code   462  stm32f1xx_hal_gpio.o(i.HAL_GPIO_Init)
    HAL_GPIO_WritePin                        0x080018ad   Thumb Code    10  stm32f1xx_hal_gpio.o(i.HAL_GPIO_WritePin)
    HAL_GetTick                              0x080018b9   Thumb Code     6  stm32f1xx_hal.o(i.HAL_GetTick)
    HAL_IncTick                              0x080018c5   Thumb Code    12  stm32f1xx_hal.o(i.HAL_IncTick)
    HAL_Init                                 0x080018d5   Thumb Code    32  stm32f1xx_hal.o(i.HAL_Init)
    HAL_InitTick                             0x080018f9   Thumb Code    54  stm32f1xx_hal.o(i.HAL_InitTick)
    HAL_MspInit                              0x08001939   Thumb Code    52  stm32f1xx_hal_msp.o(i.HAL_MspInit)
    HAL_NVIC_SetPriority                     0x08001975   Thumb Code    60  stm32f1xx_hal_cortex.o(i.HAL_NVIC_SetPriority)
    HAL_NVIC_SetPriorityGrouping             0x080019b5   Thumb Code    26  stm32f1xx_hal_cortex.o(i.HAL_NVIC_SetPriorityGrouping)
    HAL_RCC_ClockConfig                      0x080019d9   Thumb Code   280  stm32f1xx_hal_rcc.o(i.HAL_RCC_ClockConfig)
    HAL_RCC_GetSysClockFreq                  0x08001b05   Thumb Code    58  stm32f1xx_hal_rcc.o(i.HAL_RCC_GetSysClockFreq)
    HAL_RCC_OscConfig                        0x08001b51   Thumb Code   778  stm32f1xx_hal_rcc.o(i.HAL_RCC_OscConfig)
    HAL_SYSTICK_Config                       0x08001e71   Thumb Code    40  stm32f1xx_hal_cortex.o(i.HAL_SYSTICK_Config)
    HardFault_Handler                        0x08001e99   Thumb Code     2  stm32f1xx_it.o(i.HardFault_Handler)
    MX_GPIO_Init                             0x08001e9b   Thumb Code     2  gpio.o(i.MX_GPIO_Init)
    MemManage_Handler                        0x08001e9d   Thumb Code     2  stm32f1xx_it.o(i.MemManage_Handler)
    NMI_Handler                              0x08001e9f   Thumb Code     2  stm32f1xx_it.o(i.NMI_Handler)
    PendSV_Handler                           0x08001ea1   Thumb Code     2  stm32f1xx_it.o(i.PendSV_Handler)
    SVC_Handler                              0x08001ea3   Thumb Code     2  stm32f1xx_it.o(i.SVC_Handler)
    SysTick_Handler                          0x08001ea5   Thumb Code     4  stm32f1xx_it.o(i.SysTick_Handler)
    SystemClock_Config                       0x08001ea9   Thumb Code    94  main.o(i.SystemClock_Config)
    SystemInit                               0x08001f07   Thumb Code     2  system_stm32f1xx_1.o(i.SystemInit)
    UsageFault_Handler                       0x08001f09   Thumb Code     2  stm32f1xx_it.o(i.UsageFault_Handler)
    __ARM_fpclassify                         0x08001f0b   Thumb Code    40  fpclassify.o(i.__ARM_fpclassify)
    __fetch_font_size                        0x08001f55   Thumb Code    38  ccgraphic_textconfig.o(i.__fetch_font_size)
    __kernel_poly                            0x08001f99   Thumb Code   170  poly.o(i.__kernel_poly)
    __mathlib_dbl_infnan                     0x08002043   Thumb Code     6  dunder.o(i.__mathlib_dbl_infnan)
    __mathlib_dbl_infnan2                    0x08002049   Thumb Code     4  dunder.o(i.__mathlib_dbl_infnan2)
    __mathlib_dbl_underflow                  0x0800204d   Thumb Code    10  dunder.o(i.__mathlib_dbl_underflow)
    __pvt_BresenhamMethod_line               0x0800206f   Thumb Code   274  ccgraphic_line.o(i.__pvt_BresenhamMethod_line)
    __pvt_do_stepped_animate                 0x0800223f   Thumb Code    48  ccgraphic_menu.o(i.__pvt_do_stepped_animate)
    __pvt_hide_CCGraphic_Menu                0x08002419   Thumb Code    38  ccgraphic_menu.o(i.__pvt_hide_CCGraphic_Menu)
    __pvt_oled_set_cursor                    0x08002609   Thumb Code    50  oled_base_driver_ssd1309.o(i.__pvt_oled_set_cursor)
    __pvt_show_CCGraphic_Menu                0x080028f7   Thumb Code     4  ccgraphic_menu.o(i.__pvt_show_CCGraphic_Menu)
    __pvt_show_textEditOnly                  0x080028fd   Thumb Code    76  ccgraphic_menu.o(i.__pvt_show_textEditOnly)
    __register_paintdevice                   0x080029dd   Thumb Code    64  ccgraphic_device_adapter.o(i.__register_paintdevice)
    __select_from_ascii_font_size            0x08002a51   Thumb Code    36  ccgraphic_textconfig.o(i.__select_from_ascii_font_size)
    atan                                     0x08002dc1   Thumb Code   474  atan.o(i.atan)
    atan2                                    0x08002fe1   Thumb Code   374  atan2.o(i.atan2)
    clear_area_device_oled                   0x0800317d   Thumb Code    14  ccgraphic_device_oled_adapter.o(i.clear_area_device_oled)
    clear_device_oled                        0x0800318b   Thumb Code     6  ccgraphic_device_oled_adapter.o(i.clear_device_oled)
    close_device_oled                        0x08003191   Thumb Code     6  ccgraphic_device_oled_adapter.o(i.close_device_oled)
    close_oled                               0x08003197   Thumb Code    20  oled_base_driver_ssd1309.o(i.close_oled)
    draw_area_device_oled                    0x080031ab   Thumb Code    18  ccgraphic_device_oled_adapter.o(i.draw_area_device_oled)
    find_int16max                            0x080031bd   Thumb Code    32  ccgraphic_utils.o(i.find_int16max)
    find_int16min                            0x080031dd   Thumb Code    32  ccgraphic_utils.o(i.find_int16min)
    init_device_oled                         0x080031fd   Thumb Code    16  ccgraphic_device_oled_adapter.o(i.init_device_oled)
    main                                     0x0800320d   Thumb Code    22  main.o(i.main)
    max_uint16                               0x08003223   Thumb Code     8  ccgraphic_utils.o(i.max_uint16)
    min_uint16                               0x0800322b   Thumb Code     8  ccgraphic_utils.o(i.min_uint16)
    oled_bind_softspi_pack                   0x08003235   Thumb Code    60  soft_spi.o(i.oled_bind_softspi_pack)
    oled_height                              0x08003279   Thumb Code     4  oled_base_driver_ssd1309.o(i.oled_height)
    oled_helper_clear_area                   0x0800327d   Thumb Code   102  oled_base_driver_ssd1309.o(i.oled_helper_clear_area)
    oled_helper_clear_frame                  0x080032e9   Thumb Code    10  oled_base_driver_ssd1309.o(i.oled_helper_clear_frame)
    oled_helper_draw_area                    0x080032f9   Thumb Code   174  oled_base_driver_ssd1309.o(i.oled_helper_draw_area)
    oled_helper_reverse                      0x080033ad   Thumb Code    40  oled_base_driver_ssd1309.o(i.oled_helper_reverse)
    oled_helper_reversearea                  0x080033d9   Thumb Code   102  oled_base_driver_ssd1309.o(i.oled_helper_reversearea)
    oled_helper_setpixel                     0x08003445   Thumb Code    38  oled_base_driver_ssd1309.o(i.oled_helper_setpixel)
    oled_helper_update                       0x08003471   Thumb Code    50  oled_base_driver_ssd1309.o(i.oled_helper_update)
    oled_helper_update_area                  0x080034a9   Thumb Code   124  oled_base_driver_ssd1309.o(i.oled_helper_update_area)
    oled_init_softspi_handle                 0x08003529   Thumb Code    54  oled_base_driver_ssd1309.o(i.oled_init_softspi_handle)
    oled_soft_spi_setup                      0x08003569   Thumb Code    60  soft_spi_fast_setup.o(i.oled_soft_spi_setup)
    oled_support_rgb                         0x080035ad   Thumb Code     4  oled_base_driver_ssd1309.o(i.oled_support_rgb)
    oled_width                               0x080035b1   Thumb Code     4  oled_base_driver_ssd1309.o(i.oled_width)
    on_test_component_frame_test             0x080035b5   Thumb Code    44  graphoc_test_components.o(i.on_test_component_frame_test)
    on_test_component_menu                   0x080035e1   Thumb Code   388  graphoc_test_components.o(i.on_test_component_menu)
    on_test_component_textEdit_test          0x0800376d   Thumb Code   172  graphoc_test_components.o(i.on_test_component_textEdit_test)
    on_test_draw_arc                         0x080038e5   Thumb Code    48  graphic_test_base.o(i.on_test_draw_arc)
    on_test_draw_ascii                       0x08003915   Thumb Code   162  graphic_test_widget.o(i.on_test_draw_ascii)
    on_test_draw_circle                      0x08003a19   Thumb Code    70  graphic_test_base.o(i.on_test_draw_circle)
    on_test_draw_ellipse                     0x08003a5f   Thumb Code    74  graphic_test_base.o(i.on_test_draw_ellipse)
    on_test_draw_image                       0x08003aa9   Thumb Code    54  graphic_test_widget.o(i.on_test_draw_image)
    on_test_draw_line                        0x08003ae5   Thumb Code   134  graphic_test_base.o(i.on_test_draw_line)
    on_test_draw_points                      0x08003b6b   Thumb Code    50  graphic_test_base.o(i.on_test_draw_points)
    on_test_draw_rectangle                   0x08003b9d   Thumb Code    88  graphic_test_base.o(i.on_test_draw_rectangle)
    on_test_draw_triangle                    0x08003bf5   Thumb Code    60  graphic_test_base.o(i.on_test_draw_triangle)
    on_test_init_softspi_oled                0x08003c31   Thumb Code     4  graphic_test_device.o(i.on_test_init_softspi_oled)
    open_device_oled                         0x08003c35   Thumb Code     6  ccgraphic_device_oled_adapter.o(i.open_device_oled)
    open_oled                                0x08003c3b   Thumb Code    20  oled_base_driver_ssd1309.o(i.open_oled)
    property_fetcher_device_oled             0x08003c4f   Thumb Code    42  ccgraphic_device_oled_adapter.o(i.property_fetcher_device_oled)
    reverse_device_oled                      0x08003c79   Thumb Code     6  ccgraphic_device_oled_adapter.o(i.reverse_device_oled)
    reversearea_device_oled                  0x08003c7f   Thumb Code    14  ccgraphic_device_oled_adapter.o(i.reversearea_device_oled)
    set_property_device_oled                 0x08003c8d   Thumb Code     6  ccgraphic_device_oled_adapter.o(i.set_property_device_oled)
    set_property_oled                        0x08003c93   Thumb Code     2  oled_base_driver_ssd1309.o(i.set_property_oled)
    setpixel_device_oled                     0x08003c95   Thumb Code     6  ccgraphic_device_oled_adapter.o(i.setpixel_device_oled)
    swap_int16                               0x08003c9b   Thumb Code    30  ccgraphic_utils.o(i.swap_int16)
    test_clear                               0x08003cb9   Thumb Code    18  oled_test.o(i.test_clear)
    test_graphic_softspi_functionalities     0x08003ccb   Thumb Code    20  test_all.o(i.test_graphic_softspi_functionalities)
    test_oled_spi_functionalities            0x08003cdf   Thumb Code    58  test_all.o(i.test_oled_spi_functionalities)
    test_set_pixel_line                      0x08003d19   Thumb Code    44  oled_test.o(i.test_set_pixel_line)
    update_area_device_oled                  0x08003d45   Thumb Code    14  ccgraphic_device_oled_adapter.o(i.update_area_device_oled)
    update_device_oled                       0x08003d53   Thumb Code     6  ccgraphic_device_oled_adapter.o(i.update_device_oled)
    user_init_soft_spi_oled_handle           0x08003d59   Thumb Code    42  oled_test_soft_spi.o(i.user_init_soft_spi_oled_handle)
    __aeabi_d2f                              0x08003d8d   Thumb Code     0  d2f.o(x$fpl$d2f)
    _d2f                                     0x08003d8d   Thumb Code    98  d2f.o(x$fpl$d2f)
    __aeabi_dadd                             0x08003df1   Thumb Code     0  daddsub_clz.o(x$fpl$dadd)
    _dadd                                    0x08003df1   Thumb Code   332  daddsub_clz.o(x$fpl$dadd)
    __fpl_dcheck_NaN1                        0x08003f41   Thumb Code    10  dcheck1.o(x$fpl$dcheck1)
    __fpl_dcmp_Inf                           0x08003f51   Thumb Code    24  dcmpi.o(x$fpl$dcmpinf)
    __aeabi_ddiv                             0x08003f69   Thumb Code     0  ddiv.o(x$fpl$ddiv)
    _ddiv                                    0x08003f69   Thumb Code   552  ddiv.o(x$fpl$ddiv)
    __aeabi_cdcmpeq                          0x08004219   Thumb Code     0  deqf.o(x$fpl$deqf)
    _dcmpeq                                  0x08004219   Thumb Code   120  deqf.o(x$fpl$deqf)
    __aeabi_d2iz                             0x08004291   Thumb Code     0  dfix.o(x$fpl$dfix)
    _dfix                                    0x08004291   Thumb Code    94  dfix.o(x$fpl$dfix)
    __aeabi_i2d                              0x080042ef   Thumb Code     0  dflt_clz.o(x$fpl$dflt)
    _dflt                                    0x080042ef   Thumb Code    46  dflt_clz.o(x$fpl$dflt)
    __aeabi_ui2d                             0x0800431d   Thumb Code     0  dflt_clz.o(x$fpl$dfltu)
    _dfltu                                   0x0800431d   Thumb Code    38  dflt_clz.o(x$fpl$dfltu)
    __aeabi_cdcmple                          0x08004345   Thumb Code     0  dleqf.o(x$fpl$dleqf)
    _dcmple                                  0x08004345   Thumb Code   120  dleqf.o(x$fpl$dleqf)
    __fpl_dcmple_InfNaN                      0x080043a7   Thumb Code     0  dleqf.o(x$fpl$dleqf)
    __aeabi_dmul                             0x080043bd   Thumb Code     0  dmul.o(x$fpl$dmul)
    _dmul                                    0x080043bd   Thumb Code   332  dmul.o(x$fpl$dmul)
    __fpl_dnaninf                            0x08004511   Thumb Code   156  dnaninf.o(x$fpl$dnaninf)
    __fpl_dretinf                            0x080045ad   Thumb Code    12  dretinf.o(x$fpl$dretinf)
    __aeabi_drsub                            0x080045b9   Thumb Code     0  daddsub_clz.o(x$fpl$drsb)
    _drsb                                    0x080045b9   Thumb Code    22  daddsub_clz.o(x$fpl$drsb)
    __aeabi_dsub                             0x080045d1   Thumb Code     0  daddsub_clz.o(x$fpl$dsub)
    _dsub                                    0x080045d1   Thumb Code   464  daddsub_clz.o(x$fpl$dsub)
    __aeabi_fadd                             0x080047a5   Thumb Code     0  faddsub_clz.o(x$fpl$fadd)
    _fadd                                    0x080047a5   Thumb Code   196  faddsub_clz.o(x$fpl$fadd)
    __aeabi_i2f                              0x08004869   Thumb Code     0  fflt_clz.o(x$fpl$fflt)
    _fflt                                    0x08004869   Thumb Code    48  fflt_clz.o(x$fpl$fflt)
    __fpl_fnaninf                            0x08004899   Thumb Code   140  fnaninf.o(x$fpl$fnaninf)
    __fpl_fretinf                            0x08004925   Thumb Code    10  fretinf.o(x$fpl$fretinf)
    __aeabi_fsub                             0x08004931   Thumb Code     0  faddsub_clz.o(x$fpl$fsub)
    _fsub                                    0x08004931   Thumb Code   234  faddsub_clz.o(x$fpl$fsub)
    __fpl_return_NaN                         0x08004a1b   Thumb Code   100  retnan.o(x$fpl$retnan)
    __ARM_scalbn                             0x08004a7f   Thumb Code    92  scalbn.o(x$fpl$scalbn)
    __fpl_cmpreturn                          0x08004adb   Thumb Code    48  trapv.o(x$fpl$trapveneer)
    __I$use$fp                               0x08004b0a   Number         0  usenofp.o(x$fpl$usenofp)
    ascii6x8_sources                         0x08004b0a   Data         570  ascii6x8.source.o(.constdata)
    ascii8x16_sources                        0x08004d44   Data        1520  ascii8x16.source.o(.constdata)
    oled_spi_init_command                    0x08005334   Data          23  oled_base_driver_ssd1309.o(.constdata)
    test_image                               0x0800534b   Data          32  test_image.o(.constdata)
    settingsImage                            0x0800536b   Data          32  test_image.o(.constdata)
    helpImage                                0x0800538b   Data          32  test_image.o(.constdata)
    quitImage                                0x080053ab   Data          32  test_image.o(.constdata)
    playImage                                0x080053cb   Data          32  test_image.o(.constdata)
    AHBPrescTable                            0x080053fd   Data          16  system_stm32f1xx_1.o(.constdata)
    __mathlib_zero                           0x080054a8   Data           8  qnan.o(.constdata)
    Region$$Table$$Base                      0x08005544   Number         0  anon$$obj.o(Region$$Table)
    Region$$Table$$Limit                     0x08005564   Number         0  anon$$obj.o(Region$$Table)
    items                                    0x20000000   Data          48  graphoc_test_components.o(.data)
    icons                                    0x20000030   Data          48  graphoc_test_components.o(.data)
    itemsSub                                 0x20000060   Data          24  graphoc_test_components.o(.data)
    iconsSub                                 0x20000078   Data          24  graphoc_test_components.o(.data)
    soft_spi_handle                          0x200000e0   Data           8  soft_spi_fast_setup.o(.data)
    soft_spi_config                          0x200000e8   Data           8  soft_spi_fast_setup.o(.data)
    uwTickFreq                               0x200000f0   Data           1  stm32f1xx_hal.o(.data)
    uwTickPrio                               0x200000f4   Data           4  stm32f1xx_hal.o(.data)
    uwTick                                   0x200000f8   Data           4  stm32f1xx_hal.o(.data)
    SystemCoreClock                          0x200000fc   Data           4  system_stm32f1xx_1.o(.data)
    animations                               0x20000100   Data          24  graphoc_test_components.o(.bss)
    menu                                     0x20000118   Data          68  graphoc_test_components.o(.bss)
    submenu                                  0x2000015c   Data          68  graphoc_test_components.o(.bss)
    OLED_GRAM                                0x200001a0   Data        1152  oled_base_driver_ssd1309.o(.bss)
    config                                   0x20000620   Data          48  oled_test_soft_spi.o(.bss)
    soft_spi_pvt_config                      0x20000650   Data          48  soft_spi_fast_setup.o(.bss)
    __libspace_start                         0x20000680   Data          96  libspace.o(.bss)
    __temporary_stack_top$libspace           0x200006e0   Data           0  libspace.o(.bss)



==============================================================================

Memory Map of the image

  Image Entry point : 0x08000131

  Load Region LR_IROM1 (Base: 0x08000000, Size: 0x00005664, Max: 0x00080000, ABSOLUTE)

    Execution Region ER_IROM1 (Exec base: 0x08000000, Load base: 0x08000000, Size: 0x00005564, Max: 0x00080000, ABSOLUTE)

    Exec Addr    Load Addr    Size         Type   Attr      Idx    E Section Name        Object

    0x08000000   0x08000000   0x00000130   Data   RO            3    RESET               startup_stm32f103xe.o
    0x08000130   0x08000130   0x00000008   Code   RO         2930  * !!!main             c_w.l(__main.o)
    0x08000138   0x08000138   0x00000034   Code   RO         3203    !!!scatter          c_w.l(__scatter.o)
    0x0800016c   0x0800016c   0x0000001a   Code   RO         3205    !!handler_copy      c_w.l(__scatter_copy.o)
    0x08000186   0x08000186   0x00000002   PAD
    0x08000188   0x08000188   0x0000001c   Code   RO         3207    !!handler_zi        c_w.l(__scatter_zi.o)
    0x080001a4   0x080001a4   0x00000000   Code   RO         2921    .ARM.Collect$$_printf_percent$$00000000  c_w.l(_printf_percent.o)
    0x080001a4   0x080001a4   0x00000006   Code   RO         2920    .ARM.Collect$$_printf_percent$$00000009  c_w.l(_printf_d.o)
    0x080001aa   0x080001aa   0x00000004   Code   RO         2989    .ARM.Collect$$_printf_percent$$00000017  c_w.l(_printf_percent_end.o)
    0x080001ae   0x080001ae   0x00000002   Code   RO         3068    .ARM.Collect$$libinit$$00000000  c_w.l(libinit.o)
    0x080001b0   0x080001b0   0x00000000   Code   RO         3074    .ARM.Collect$$libinit$$00000002  c_w.l(libinit2.o)
    0x080001b0   0x080001b0   0x00000000   Code   RO         3076    .ARM.Collect$$libinit$$00000004  c_w.l(libinit2.o)
    0x080001b0   0x080001b0   0x00000000   Code   RO         3079    .ARM.Collect$$libinit$$0000000A  c_w.l(libinit2.o)
    0x080001b0   0x080001b0   0x00000000   Code   RO         3081    .ARM.Collect$$libinit$$0000000C  c_w.l(libinit2.o)
    0x080001b0   0x080001b0   0x00000000   Code   RO         3083    .ARM.Collect$$libinit$$0000000E  c_w.l(libinit2.o)
    0x080001b0   0x080001b0   0x00000000   Code   RO         3086    .ARM.Collect$$libinit$$00000011  c_w.l(libinit2.o)
    0x080001b0   0x080001b0   0x00000000   Code   RO         3088    .ARM.Collect$$libinit$$00000013  c_w.l(libinit2.o)
    0x080001b0   0x080001b0   0x00000000   Code   RO         3090    .ARM.Collect$$libinit$$00000015  c_w.l(libinit2.o)
    0x080001b0   0x080001b0   0x00000000   Code   RO         3092    .ARM.Collect$$libinit$$00000017  c_w.l(libinit2.o)
    0x080001b0   0x080001b0   0x00000000   Code   RO         3094    .ARM.Collect$$libinit$$00000019  c_w.l(libinit2.o)
    0x080001b0   0x080001b0   0x00000000   Code   RO         3096    .ARM.Collect$$libinit$$0000001B  c_w.l(libinit2.o)
    0x080001b0   0x080001b0   0x00000000   Code   RO         3098    .ARM.Collect$$libinit$$0000001D  c_w.l(libinit2.o)
    0x080001b0   0x080001b0   0x00000000   Code   RO         3100    .ARM.Collect$$libinit$$0000001F  c_w.l(libinit2.o)
    0x080001b0   0x080001b0   0x00000000   Code   RO         3102    .ARM.Collect$$libinit$$00000021  c_w.l(libinit2.o)
    0x080001b0   0x080001b0   0x00000000   Code   RO         3104    .ARM.Collect$$libinit$$00000023  c_w.l(libinit2.o)
    0x080001b0   0x080001b0   0x00000000   Code   RO         3106    .ARM.Collect$$libinit$$00000025  c_w.l(libinit2.o)
    0x080001b0   0x080001b0   0x00000000   Code   RO         3110    .ARM.Collect$$libinit$$0000002C  c_w.l(libinit2.o)
    0x080001b0   0x080001b0   0x00000000   Code   RO         3112    .ARM.Collect$$libinit$$0000002E  c_w.l(libinit2.o)
    0x080001b0   0x080001b0   0x00000000   Code   RO         3114    .ARM.Collect$$libinit$$00000030  c_w.l(libinit2.o)
    0x080001b0   0x080001b0   0x00000000   Code   RO         3116    .ARM.Collect$$libinit$$00000032  c_w.l(libinit2.o)
    0x080001b0   0x080001b0   0x00000002   Code   RO         3117    .ARM.Collect$$libinit$$00000033  c_w.l(libinit2.o)
    0x080001b2   0x080001b2   0x00000002   Code   RO         3141    .ARM.Collect$$libshutdown$$00000000  c_w.l(libshutdown.o)
    0x080001b4   0x080001b4   0x00000000   Code   RO         3154    .ARM.Collect$$libshutdown$$00000002  c_w.l(libshutdown2.o)
    0x080001b4   0x080001b4   0x00000000   Code   RO         3156    .ARM.Collect$$libshutdown$$00000004  c_w.l(libshutdown2.o)
    0x080001b4   0x080001b4   0x00000000   Code   RO         3158    .ARM.Collect$$libshutdown$$00000006  c_w.l(libshutdown2.o)
    0x080001b4   0x080001b4   0x00000000   Code   RO         3161    .ARM.Collect$$libshutdown$$00000009  c_w.l(libshutdown2.o)
    0x080001b4   0x080001b4   0x00000000   Code   RO         3164    .ARM.Collect$$libshutdown$$0000000C  c_w.l(libshutdown2.o)
    0x080001b4   0x080001b4   0x00000000   Code   RO         3166    .ARM.Collect$$libshutdown$$0000000E  c_w.l(libshutdown2.o)
    0x080001b4   0x080001b4   0x00000000   Code   RO         3169    .ARM.Collect$$libshutdown$$00000011  c_w.l(libshutdown2.o)
    0x080001b4   0x080001b4   0x00000002   Code   RO         3170    .ARM.Collect$$libshutdown$$00000012  c_w.l(libshutdown2.o)
    0x080001b6   0x080001b6   0x00000000   Code   RO         2978    .ARM.Collect$$rtentry$$00000000  c_w.l(__rtentry.o)
    0x080001b6   0x080001b6   0x00000000   Code   RO         3029    .ARM.Collect$$rtentry$$00000002  c_w.l(__rtentry2.o)
    0x080001b6   0x080001b6   0x00000006   Code   RO         3041    .ARM.Collect$$rtentry$$00000004  c_w.l(__rtentry4.o)
    0x080001bc   0x080001bc   0x00000000   Code   RO         3031    .ARM.Collect$$rtentry$$00000009  c_w.l(__rtentry2.o)
    0x080001bc   0x080001bc   0x00000004   Code   RO         3032    .ARM.Collect$$rtentry$$0000000A  c_w.l(__rtentry2.o)
    0x080001c0   0x080001c0   0x00000000   Code   RO         3034    .ARM.Collect$$rtentry$$0000000C  c_w.l(__rtentry2.o)
    0x080001c0   0x080001c0   0x00000008   Code   RO         3035    .ARM.Collect$$rtentry$$0000000D  c_w.l(__rtentry2.o)
    0x080001c8   0x080001c8   0x00000002   Code   RO         3071    .ARM.Collect$$rtexit$$00000000  c_w.l(rtexit.o)
    0x080001ca   0x080001ca   0x00000000   Code   RO         3121    .ARM.Collect$$rtexit$$00000002  c_w.l(rtexit2.o)
    0x080001ca   0x080001ca   0x00000004   Code   RO         3122    .ARM.Collect$$rtexit$$00000003  c_w.l(rtexit2.o)
    0x080001ce   0x080001ce   0x00000006   Code   RO         3123    .ARM.Collect$$rtexit$$00000004  c_w.l(rtexit2.o)
    0x080001d4   0x080001d4   0x00000040   Code   RO            4    .text               startup_stm32f103xe.o
    0x08000214   0x08000214   0x00000034   Code   RO         2894    .text               c_w.l(noretval__2snprintf.o)
    0x08000248   0x08000248   0x00000068   Code   RO         2896    .text               c_w.l(__printf.o)
    0x080002b0   0x080002b0   0x00000078   Code   RO         2898    .text               c_w.l(_printf_dec.o)
    0x08000328   0x08000328   0x00000044   Code   RO         2922    .text               c_w.l(rt_memclr.o)
    0x0800036c   0x0800036c   0x0000004e   Code   RO         2924    .text               c_w.l(rt_memclr_w.o)
    0x080003ba   0x080003ba   0x00000002   PAD
    0x080003bc   0x080003bc   0x00000080   Code   RO         2926    .text               c_w.l(strcmpv7m.o)
    0x0800043c   0x0800043c   0x00000006   Code   RO         2928    .text               c_w.l(heapauxi.o)
    0x08000442   0x08000442   0x00000016   Code   RO         2979    .text               c_w.l(_rserrno.o)
    0x08000458   0x08000458   0x000000b2   Code   RO         2981    .text               c_w.l(_printf_intcommon.o)
    0x0800050a   0x0800050a   0x00000002   PAD
    0x0800050c   0x0800050c   0x00000030   Code   RO         2983    .text               c_w.l(_printf_char_common.o)
    0x0800053c   0x0800053c   0x0000000a   Code   RO         2985    .text               c_w.l(_sputc.o)
    0x08000546   0x08000546   0x00000010   Code   RO         2987    .text               c_w.l(_snputc.o)
    0x08000556   0x08000556   0x00000002   PAD
    0x08000558   0x08000558   0x00000008   Code   RO         3046    .text               c_w.l(rt_errno_addr_intlibspace.o)
    0x08000560   0x08000560   0x00000008   Code   RO         3056    .text               c_w.l(libspace.o)
    0x08000568   0x08000568   0x0000004a   Code   RO         3059    .text               c_w.l(sys_stackheap_outer.o)
    0x080005b2   0x080005b2   0x00000012   Code   RO         3061    .text               c_w.l(exit.o)
    0x080005c4   0x080005c4   0x0000000c   Code   RO         3133    .text               c_w.l(sys_exit.o)
    0x080005d0   0x080005d0   0x00000002   Code   RO         3144    .text               c_w.l(use_no_semi.o)
    0x080005d2   0x080005d2   0x00000000   Code   RO         3146    .text               c_w.l(indicate_semi.o)
    0x080005d2   0x080005d2   0x00000002   Code   RO         1648    i.BusFault_Handler  stm32f1xx_it.o
    0x080005d4   0x080005d4   0x0000001e   Code   RO          742    i.CCGraphicWidget_AsciiTextItem_on_newLine_point  ccgraphic_textitem.o
    0x080005f2   0x080005f2   0x00000006   Code   RO          743    i.CCGraphicWidget_AsciiTextItem_relocate  ccgraphic_textitem.o
    0x080005f8   0x080005f8   0x00000004   Code   RO          744    i.CCGraphicWidget_AsciiTextItem_setAsciiText  ccgraphic_textitem.o
    0x080005fc   0x080005fc   0x00000006   Code   RO          745    i.CCGraphicWidget_AsciiTextItem_setIndexedPoint  ccgraphic_textitem.o
    0x08000602   0x08000602   0x00000034   Code   RO          911    i.CCGraphicWidget_MaxAcceptable_Size  ccgraphicwidget_base.o
    0x08000636   0x08000636   0x00000002   PAD
    0x08000638   0x08000638   0x000000a8   Code   RO          746    i.CCGraphicWidget_drawAsciiTextItem  ccgraphic_textitem.o
    0x080006e0   0x080006e0   0x000000d8   Code   RO          747    i.CCGraphicWidget_drawAsciiTextItem_with_finPoint  ccgraphic_textitem.o
    0x080007b8   0x080007b8   0x0000001a   Code   RO          424    i.CCGraphicWidget_draw_image  ccgraphic_image.o
    0x080007d2   0x080007d2   0x00000002   PAD
    0x080007d4   0x080007d4   0x00000014   Code   RO          748    i.CCGraphicWidget_init_AsciiTextItem  ccgraphic_textitem.o
    0x080007e8   0x080007e8   0x00000006   Code   RO          425    i.CCGraphicWidget_init_image  ccgraphic_image.o
    0x080007ee   0x080007ee   0x00000002   PAD
    0x080007f0   0x080007f0   0x00000054   Code   RO          388    i.CCGraphic_createDeviceFrame  ccgraphic_frame.o
    0x08000844   0x08000844   0x00000216   Code   RO           35    i.CCGraphic_draw_arc  ccgraphic_arc.o
    0x08000a5a   0x08000a5a   0x00000148   Code   RO           83    i.CCGraphic_draw_circle  ccgraphic_circle.o
    0x08000ba2   0x08000ba2   0x00000002   PAD
    0x08000ba4   0x08000ba4   0x000002a8   Code   RO          361    i.CCGraphic_draw_ellipse  ccgraphic_ellipse.o
    0x08000e4c   0x08000e4c   0x00000084   Code   RO          445    i.CCGraphic_draw_line  ccgraphic_line.o
    0x08000ed0   0x08000ed0   0x00000008   Code   RO          607    i.CCGraphic_draw_point  ccgraphic_point.o
    0x08000ed8   0x08000ed8   0x00000068   Code   RO          625    i.CCGraphic_draw_rectangle  ccgraphic_rectangle.o
    0x08000f40   0x08000f40   0x000001fc   Code   RO           84    i.CCGraphic_drawfilled_circle  ccgraphic_circle.o
    0x0800113c   0x0800113c   0x0000035c   Code   RO          362    i.CCGraphic_drawfilled_ellipse  ccgraphic_ellipse.o
    0x08001498   0x08001498   0x00000036   Code   RO          626    i.CCGraphic_drawfilled_rectangle  ccgraphic_rectangle.o
    0x080014ce   0x080014ce   0x00000096   Code   RO          814    i.CCGraphic_drawfilled_triangle  ccgraphic_triangle.o
    0x08001564   0x08001564   0x0000004c   Code   RO          686    i.CCGraphic_init_CCGraphicTextEdit  ccgraphic_textedit.o
    0x080015b0   0x080015b0   0x0000000e   Code   RO           37    i.CCGraphic_init_CCGraphic_Arc  ccgraphic_arc.o
    0x080015be   0x080015be   0x00000002   PAD
    0x080015c0   0x080015c0   0x000000a4   Code   RO          472    i.CCGraphic_init_Menu  ccgraphic_menu.o
    0x08001664   0x08001664   0x00000006   Code   RO           85    i.CCGraphic_init_circle  ccgraphic_circle.o
    0x0800166a   0x0800166a   0x00000008   Code   RO          363    i.CCGraphic_init_ellipse  ccgraphic_ellipse.o
    0x08001672   0x08001672   0x00000006   Code   RO          446    i.CCGraphic_init_line  ccgraphic_line.o
    0x08001678   0x08001678   0x00000006   Code   RO          608    i.CCGraphic_init_point  ccgraphic_point.o
    0x0800167e   0x0800167e   0x00000006   Code   RO          627    i.CCGraphic_init_rectangle  ccgraphic_rectangle.o
    0x08001684   0x08001684   0x00000008   Code   RO          815    i.CCGraphic_init_triangle  ccgraphic_triangle.o
    0x0800168c   0x0800168c   0x00000002   Code   RO         1649    i.DebugMon_Handler  stm32f1xx_it.o
    0x0800168e   0x0800168e   0x00000002   PAD
    0x08001690   0x08001690   0x00000024   Code   RO         1883    i.HAL_Delay         stm32f1xx_hal.o
    0x080016b4   0x080016b4   0x000001f8   Code   RO         2193    i.HAL_GPIO_Init     stm32f1xx_hal_gpio.o
    0x080018ac   0x080018ac   0x0000000a   Code   RO         2197    i.HAL_GPIO_WritePin  stm32f1xx_hal_gpio.o
    0x080018b6   0x080018b6   0x00000002   PAD
    0x080018b8   0x080018b8   0x0000000c   Code   RO         1887    i.HAL_GetTick       stm32f1xx_hal.o
    0x080018c4   0x080018c4   0x00000010   Code   RO         1893    i.HAL_IncTick       stm32f1xx_hal.o
    0x080018d4   0x080018d4   0x00000024   Code   RO         1894    i.HAL_Init          stm32f1xx_hal.o
    0x080018f8   0x080018f8   0x00000040   Code   RO         1895    i.HAL_InitTick      stm32f1xx_hal.o
    0x08001938   0x08001938   0x0000003c   Code   RO         1624    i.HAL_MspInit       stm32f1xx_hal_msp.o
    0x08001974   0x08001974   0x00000040   Code   RO         2359    i.HAL_NVIC_SetPriority  stm32f1xx_hal_cortex.o
    0x080019b4   0x080019b4   0x00000024   Code   RO         2360    i.HAL_NVIC_SetPriorityGrouping  stm32f1xx_hal_cortex.o
    0x080019d8   0x080019d8   0x0000012c   Code   RO         2051    i.HAL_RCC_ClockConfig  stm32f1xx_hal_rcc.o
    0x08001b04   0x08001b04   0x0000004c   Code   RO         2060    i.HAL_RCC_GetSysClockFreq  stm32f1xx_hal_rcc.o
    0x08001b50   0x08001b50   0x00000320   Code   RO         2063    i.HAL_RCC_OscConfig  stm32f1xx_hal_rcc.o
    0x08001e70   0x08001e70   0x00000028   Code   RO         2364    i.HAL_SYSTICK_Config  stm32f1xx_hal_cortex.o
    0x08001e98   0x08001e98   0x00000002   Code   RO         1650    i.HardFault_Handler  stm32f1xx_it.o
    0x08001e9a   0x08001e9a   0x00000002   Code   RO          926    i.MX_GPIO_Init      gpio.o
    0x08001e9c   0x08001e9c   0x00000002   Code   RO         1651    i.MemManage_Handler  stm32f1xx_it.o
    0x08001e9e   0x08001e9e   0x00000002   Code   RO         1652    i.NMI_Handler       stm32f1xx_it.o
    0x08001ea0   0x08001ea0   0x00000002   Code   RO         1653    i.PendSV_Handler    stm32f1xx_it.o
    0x08001ea2   0x08001ea2   0x00000002   Code   RO         1654    i.SVC_Handler       stm32f1xx_it.o
    0x08001ea4   0x08001ea4   0x00000004   Code   RO         1655    i.SysTick_Handler   stm32f1xx_it.o
    0x08001ea8   0x08001ea8   0x0000005e   Code   RO         1217    i.SystemClock_Config  main.o
    0x08001f06   0x08001f06   0x00000002   Code   RO         2854    i.SystemInit        system_stm32f1xx_1.o
    0x08001f08   0x08001f08   0x00000002   Code   RO         1656    i.UsageFault_Handler  stm32f1xx_it.o
    0x08001f0a   0x08001f0a   0x00000028   Code   RO         3052    i.__ARM_fpclassify  m_ws.l(fpclassify.o)
    0x08001f32   0x08001f32   0x00000020   Code   RO         2366    i.__NVIC_SetPriority  stm32f1xx_hal_cortex.o
    0x08001f52   0x08001f52   0x00000002   PAD
    0x08001f54   0x08001f54   0x00000026   Code   RO          667    i.__fetch_font_size  ccgraphic_textconfig.o
    0x08001f7a   0x08001f7a   0x0000001e   Code   RO         1723    i.__helper_on_set_text  test_all.o
    0x08001f98   0x08001f98   0x000000aa   Code   RO         3054    i.__kernel_poly     m_ws.l(poly.o)
    0x08002042   0x08002042   0x00000006   Code   RO         3014    i.__mathlib_dbl_infnan  m_ws.l(dunder.o)
    0x08002048   0x08002048   0x00000004   Code   RO         3015    i.__mathlib_dbl_infnan2  m_ws.l(dunder.o)
    0x0800204c   0x0800204c   0x00000010   Code   RO         3019    i.__mathlib_dbl_underflow  m_ws.l(dunder.o)
    0x0800205c   0x0800205c   0x00000012   Code   RO         1258    i.__on_fetch_oled_table  oled_base_driver_ssd1309.o
    0x0800206e   0x0800206e   0x00000112   Code   RO          447    i.__pvt_BresenhamMethod_line  ccgraphic_line.o
    0x08002180   0x08002180   0x00000014   Code   RO          687    i.__pvt_append_text  ccgraphic_textedit.o
    0x08002194   0x08002194   0x0000003e   Code   RO          473    i.__pvt_backParent  ccgraphic_menu.o
    0x080021d2   0x080021d2   0x00000024   Code   RO          688    i.__pvt_clear_text  ccgraphic_textedit.o
    0x080021f6   0x080021f6   0x00000048   Code   RO          474    i.__pvt_doByStep    ccgraphic_menu.o
    0x0800223e   0x0800223e   0x00000030   Code   RO          475    i.__pvt_do_stepped_animate  ccgraphic_menu.o
    0x0800226e   0x0800226e   0x0000002a   Code   RO          749    i.__pvt_draw_char_each  ccgraphic_textitem.o
    0x08002298   0x08002298   0x0000003e   Code   RO          476    i.__pvt_enterSub    ccgraphic_menu.o
    0x080022d6   0x080022d6   0x0000005c   Code   RO          750    i.__pvt_fetch_valid_final_point  ccgraphic_textitem.o
    0x08002332   0x08002332   0x00000072   Code   RO          389    i.__pvt_hide        ccgraphic_frame.o
    0x080023a4   0x080023a4   0x00000020   Code   RO          689    i.__pvt_hide        ccgraphic_textedit.o
    0x080023c4   0x080023c4   0x00000054   Code   RO          477    i.__pvt_hideIcon    ccgraphic_menu.o
    0x08002418   0x08002418   0x00000026   Code   RO          478    i.__pvt_hide_CCGraphic_Menu  ccgraphic_menu.o
    0x0800243e   0x0800243e   0x00000002   PAD
    0x08002440   0x08002440   0x000000c8   Code   RO         1539    i.__pvt_init_soft_spi_gpio_init  soft_spi.o
    0x08002508   0x08002508   0x00000064   Code   RO           38    i.__pvt_is_in_angle  ccgraphic_arc.o
    0x0800256c   0x0800256c   0x00000076   Code   RO          816    i.__pvt_is_in_triangle  ccgraphic_triangle.o
    0x080025e2   0x080025e2   0x00000026   Code   RO          690    i.__pvt_newLine_text  ccgraphic_textedit.o
    0x08002608   0x08002608   0x00000032   Code   RO         1259    i.__pvt_oled_set_cursor  oled_base_driver_ssd1309.o
    0x0800263a   0x0800263a   0x00000010   Code   RO          479    i.__pvt_providePoint  ccgraphic_menu.o
    0x0800264a   0x0800264a   0x00000018   Code   RO          480    i.__pvt_provideSize  ccgraphic_menu.o
    0x08002662   0x08002662   0x0000001a   Code   RO          691    i.__pvt_relocate    ccgraphic_textedit.o
    0x0800267c   0x0800267c   0x00000060   Code   RO         1540    i.__pvt_send_command  soft_spi.o
    0x080026dc   0x080026dc   0x00000076   Code   RO         1541    i.__pvt_send_data   soft_spi.o
    0x08002752   0x08002752   0x0000002c   Code   RO          481    i.__pvt_setAnimationShowState  ccgraphic_menu.o
    0x0800277e   0x0800277e   0x0000000c   Code   RO          482    i.__pvt_setAnimationShowState_wrapper  ccgraphic_menu.o
    0x0800278a   0x0800278a   0x00000036   Code   RO          483    i.__pvt_setIcon     ccgraphic_menu.o
    0x080027c0   0x080027c0   0x00000024   Code   RO          692    i.__pvt_setText     ccgraphic_textedit.o
    0x080027e4   0x080027e4   0x00000038   Code   RO          751    i.__pvt_should_be_next_line  ccgraphic_textitem.o
    0x0800281c   0x0800281c   0x00000052   Code   RO          390    i.__pvt_show        ccgraphic_frame.o
    0x0800286e   0x0800286e   0x0000001e   Code   RO          693    i.__pvt_show        ccgraphic_textedit.o
    0x0800288c   0x0800288c   0x0000006a   Code   RO          484    i.__pvt_showIcon    ccgraphic_menu.o
    0x080028f6   0x080028f6   0x00000004   Code   RO          485    i.__pvt_show_CCGraphic_Menu  ccgraphic_menu.o
    0x080028fa   0x080028fa   0x00000002   PAD
    0x080028fc   0x080028fc   0x0000004c   Code   RO          486    i.__pvt_show_textEditOnly  ccgraphic_menu.o
    0x08002948   0x08002948   0x00000080   Code   RO          487    i.__pvt_switchIndex  ccgraphic_menu.o
    0x080029c8   0x080029c8   0x00000006   Code   RO          391    i.__pvt_update      ccgraphic_frame.o
    0x080029ce   0x080029ce   0x00000006   Code   RO          488    i.__pvt_update      ccgraphic_menu.o
    0x080029d4   0x080029d4   0x00000006   Code   RO          694    i.__pvt_update_text  ccgraphic_textedit.o
    0x080029da   0x080029da   0x00000002   PAD
    0x080029dc   0x080029dc   0x00000074   Code   RO          134    i.__register_paintdevice  ccgraphic_device_adapter.o
    0x08002a50   0x08002a50   0x0000002c   Code   RO          668    i.__select_from_ascii_font_size  ccgraphic_textconfig.o
    0x08002a7c   0x08002a7c   0x00000344   Code   RO         1724    i.__test_common     test_all.o
    0x08002dc0   0x08002dc0   0x00000220   Code   RO         3004    i.atan              m_ws.l(atan.o)
    0x08002fe0   0x08002fe0   0x0000019c   Code   RO         2971    i.atan2             m_ws.l(atan2.o)
    0x0800317c   0x0800317c   0x0000000e   Code   RO          259    i.clear_area_device_oled  ccgraphic_device_oled_adapter.o
    0x0800318a   0x0800318a   0x00000006   Code   RO          260    i.clear_device_oled  ccgraphic_device_oled_adapter.o
    0x08003190   0x08003190   0x00000006   Code   RO          261    i.close_device_oled  ccgraphic_device_oled_adapter.o
    0x08003196   0x08003196   0x00000014   Code   RO         1260    i.close_oled        oled_base_driver_ssd1309.o
    0x080031aa   0x080031aa   0x00000012   Code   RO          262    i.draw_area_device_oled  ccgraphic_device_oled_adapter.o
    0x080031bc   0x080031bc   0x00000020   Code   RO          845    i.find_int16max     ccgraphic_utils.o
    0x080031dc   0x080031dc   0x00000020   Code   RO          846    i.find_int16min     ccgraphic_utils.o
    0x080031fc   0x080031fc   0x00000010   Code   RO          263    i.init_device_oled  ccgraphic_device_oled_adapter.o
    0x0800320c   0x0800320c   0x00000016   Code   RO         1218    i.main              main.o
    0x08003222   0x08003222   0x00000008   Code   RO          848    i.max_uint16        ccgraphic_utils.o
    0x0800322a   0x0800322a   0x00000008   Code   RO          850    i.min_uint16        ccgraphic_utils.o
    0x08003232   0x08003232   0x00000002   PAD
    0x08003234   0x08003234   0x00000044   Code   RO         1542    i.oled_bind_softspi_pack  soft_spi.o
    0x08003278   0x08003278   0x00000004   Code   RO         1261    i.oled_height       oled_base_driver_ssd1309.o
    0x0800327c   0x0800327c   0x0000006c   Code   RO         1262    i.oled_helper_clear_area  oled_base_driver_ssd1309.o
    0x080032e8   0x080032e8   0x00000010   Code   RO         1263    i.oled_helper_clear_frame  oled_base_driver_ssd1309.o
    0x080032f8   0x080032f8   0x000000b4   Code   RO         1264    i.oled_helper_draw_area  oled_base_driver_ssd1309.o
    0x080033ac   0x080033ac   0x0000002c   Code   RO         1265    i.oled_helper_reverse  oled_base_driver_ssd1309.o
    0x080033d8   0x080033d8   0x0000006c   Code   RO         1266    i.oled_helper_reversearea  oled_base_driver_ssd1309.o
    0x08003444   0x08003444   0x0000002c   Code   RO         1267    i.oled_helper_setpixel  oled_base_driver_ssd1309.o
    0x08003470   0x08003470   0x00000038   Code   RO         1268    i.oled_helper_update  oled_base_driver_ssd1309.o
    0x080034a8   0x080034a8   0x00000080   Code   RO         1269    i.oled_helper_update_area  oled_base_driver_ssd1309.o
    0x08003528   0x08003528   0x00000040   Code   RO         1270    i.oled_init_softspi_handle  oled_base_driver_ssd1309.o
    0x08003568   0x08003568   0x00000044   Code   RO         1584    i.oled_soft_spi_setup  soft_spi_fast_setup.o
    0x080035ac   0x080035ac   0x00000004   Code   RO         1271    i.oled_support_rgb  oled_base_driver_ssd1309.o
    0x080035b0   0x080035b0   0x00000004   Code   RO         1272    i.oled_width        oled_base_driver_ssd1309.o
    0x080035b4   0x080035b4   0x0000002c   Code   RO         1104    i.on_test_component_frame_test  graphoc_test_components.o
    0x080035e0   0x080035e0   0x0000018c   Code   RO         1105    i.on_test_component_menu  graphoc_test_components.o
    0x0800376c   0x0800376c   0x00000178   Code   RO         1106    i.on_test_component_textEdit_test  graphoc_test_components.o
    0x080038e4   0x080038e4   0x00000030   Code   RO          998    i.on_test_draw_arc  graphic_test_base.o
    0x08003914   0x08003914   0x00000104   Code   RO         1073    i.on_test_draw_ascii  graphic_test_widget.o
    0x08003a18   0x08003a18   0x00000046   Code   RO          999    i.on_test_draw_circle  graphic_test_base.o
    0x08003a5e   0x08003a5e   0x0000004a   Code   RO         1000    i.on_test_draw_ellipse  graphic_test_base.o
    0x08003aa8   0x08003aa8   0x0000003c   Code   RO         1074    i.on_test_draw_image  graphic_test_widget.o
    0x08003ae4   0x08003ae4   0x00000086   Code   RO         1001    i.on_test_draw_line  graphic_test_base.o
    0x08003b6a   0x08003b6a   0x00000032   Code   RO         1002    i.on_test_draw_points  graphic_test_base.o
    0x08003b9c   0x08003b9c   0x00000058   Code   RO         1003    i.on_test_draw_rectangle  graphic_test_base.o
    0x08003bf4   0x08003bf4   0x0000003c   Code   RO         1004    i.on_test_draw_triangle  graphic_test_base.o
    0x08003c30   0x08003c30   0x00000004   Code   RO         1055    i.on_test_init_softspi_oled  graphic_test_device.o
    0x08003c34   0x08003c34   0x00000006   Code   RO          264    i.open_device_oled  ccgraphic_device_oled_adapter.o
    0x08003c3a   0x08003c3a   0x00000014   Code   RO         1273    i.open_oled         oled_base_driver_ssd1309.o
    0x08003c4e   0x08003c4e   0x0000002a   Code   RO          265    i.property_fetcher_device_oled  ccgraphic_device_oled_adapter.o
    0x08003c78   0x08003c78   0x00000006   Code   RO          266    i.reverse_device_oled  ccgraphic_device_oled_adapter.o
    0x08003c7e   0x08003c7e   0x0000000e   Code   RO          267    i.reversearea_device_oled  ccgraphic_device_oled_adapter.o
    0x08003c8c   0x08003c8c   0x00000006   Code   RO          268    i.set_property_device_oled  ccgraphic_device_oled_adapter.o
    0x08003c92   0x08003c92   0x00000002   Code   RO         1274    i.set_property_oled  oled_base_driver_ssd1309.o
    0x08003c94   0x08003c94   0x00000006   Code   RO          269    i.setpixel_device_oled  ccgraphic_device_oled_adapter.o
    0x08003c9a   0x08003c9a   0x0000001e   Code   RO          852    i.swap_int16        ccgraphic_utils.o
    0x08003cb8   0x08003cb8   0x00000012   Code   RO         1394    i.test_clear        oled_test.o
    0x08003cca   0x08003cca   0x00000014   Code   RO         1725    i.test_graphic_softspi_functionalities  test_all.o
    0x08003cde   0x08003cde   0x0000003a   Code   RO         1726    i.test_oled_spi_functionalities  test_all.o
    0x08003d18   0x08003d18   0x0000002c   Code   RO         1396    i.test_set_pixel_line  oled_test.o
    0x08003d44   0x08003d44   0x0000000e   Code   RO          270    i.update_area_device_oled  ccgraphic_device_oled_adapter.o
    0x08003d52   0x08003d52   0x00000006   Code   RO          271    i.update_device_oled  ccgraphic_device_oled_adapter.o
    0x08003d58   0x08003d58   0x00000034   Code   RO         1445    i.user_init_soft_spi_oled_handle  oled_test_soft_spi.o
    0x08003d8c   0x08003d8c   0x00000062   Code   RO         2932    x$fpl$d2f           fz_ws.l(d2f.o)
    0x08003dee   0x08003dee   0x00000002   PAD
    0x08003df0   0x08003df0   0x00000150   Code   RO         2934    x$fpl$dadd          fz_ws.l(daddsub_clz.o)
    0x08003f40   0x08003f40   0x00000010   Code   RO         3069    x$fpl$dcheck1       fz_ws.l(dcheck1.o)
    0x08003f50   0x08003f50   0x00000018   Code   RO         2990    x$fpl$dcmpinf       fz_ws.l(dcmpi.o)
    0x08003f68   0x08003f68   0x000002b0   Code   RO         2941    x$fpl$ddiv          fz_ws.l(ddiv.o)
    0x08004218   0x08004218   0x00000078   Code   RO         2992    x$fpl$deqf          fz_ws.l(deqf.o)
    0x08004290   0x08004290   0x0000005e   Code   RO         2944    x$fpl$dfix          fz_ws.l(dfix.o)
    0x080042ee   0x080042ee   0x0000002e   Code   RO         2949    x$fpl$dflt          fz_ws.l(dflt_clz.o)
    0x0800431c   0x0800431c   0x00000026   Code   RO         2948    x$fpl$dfltu         fz_ws.l(dflt_clz.o)
    0x08004342   0x08004342   0x00000002   PAD
    0x08004344   0x08004344   0x00000078   Code   RO         2954    x$fpl$dleqf         fz_ws.l(dleqf.o)
    0x080043bc   0x080043bc   0x00000154   Code   RO         2956    x$fpl$dmul          fz_ws.l(dmul.o)
    0x08004510   0x08004510   0x0000009c   Code   RO         2994    x$fpl$dnaninf       fz_ws.l(dnaninf.o)
    0x080045ac   0x080045ac   0x0000000c   Code   RO         2996    x$fpl$dretinf       fz_ws.l(dretinf.o)
    0x080045b8   0x080045b8   0x00000016   Code   RO         2935    x$fpl$drsb          fz_ws.l(daddsub_clz.o)
    0x080045ce   0x080045ce   0x00000002   PAD
    0x080045d0   0x080045d0   0x000001d4   Code   RO         2936    x$fpl$dsub          fz_ws.l(daddsub_clz.o)
    0x080047a4   0x080047a4   0x000000c4   Code   RO         2958    x$fpl$fadd          fz_ws.l(faddsub_clz.o)
    0x08004868   0x08004868   0x00000030   Code   RO         2965    x$fpl$fflt          fz_ws.l(fflt_clz.o)
    0x08004898   0x08004898   0x0000008c   Code   RO         2998    x$fpl$fnaninf       fz_ws.l(fnaninf.o)
    0x08004924   0x08004924   0x0000000a   Code   RO         3000    x$fpl$fretinf       fz_ws.l(fretinf.o)
    0x0800492e   0x0800492e   0x00000002   PAD
    0x08004930   0x08004930   0x000000ea   Code   RO         2960    x$fpl$fsub          fz_ws.l(faddsub_clz.o)
    0x08004a1a   0x08004a1a   0x00000064   Code   RO         3118    x$fpl$retnan        fz_ws.l(retnan.o)
    0x08004a7e   0x08004a7e   0x0000005c   Code   RO         3050    x$fpl$scalbn        fz_ws.l(scalbn.o)
    0x08004ada   0x08004ada   0x00000030   Code   RO         3131    x$fpl$trapveneer    fz_ws.l(trapv.o)
    0x08004b0a   0x08004b0a   0x00000000   Code   RO         3002    x$fpl$usenofp       fz_ws.l(usenofp.o)
    0x08004b0a   0x08004b0a   0x0000023a   Data   RO           10    .constdata          ascii6x8.source.o
    0x08004d44   0x08004d44   0x000005f0   Data   RO           26    .constdata          ascii8x16.source.o
    0x08005334   0x08005334   0x00000017   Data   RO         1276    .constdata          oled_base_driver_ssd1309.o
    0x0800534b   0x0800534b   0x00000020   Data   RO         1782    .constdata          test_image.o
    0x0800536b   0x0800536b   0x00000020   Data   RO         1783    .constdata          test_image.o
    0x0800538b   0x0800538b   0x00000020   Data   RO         1784    .constdata          test_image.o
    0x080053ab   0x080053ab   0x00000020   Data   RO         1785    .constdata          test_image.o
    0x080053cb   0x080053cb   0x00000020   Data   RO         1786    .constdata          test_image.o
    0x080053eb   0x080053eb   0x00000012   Data   RO         2064    .constdata          stm32f1xx_hal_rcc.o
    0x080053fd   0x080053fd   0x00000010   Data   RO         2855    .constdata          system_stm32f1xx_1.o
    0x0800540d   0x0800540d   0x00000003   PAD
    0x08005410   0x08005410   0x00000098   Data   RO         3005    .constdata          m_ws.l(atan.o)
    0x080054a8   0x080054a8   0x00000008   Data   RO         3027    .constdata          m_ws.l(qnan.o)
    0x080054b0   0x080054b0   0x00000034   Data   RO         1108    .conststring        graphoc_test_components.o
    0x080054e4   0x080054e4   0x0000005d   Data   RO         1727    .conststring        test_all.o
    0x08005541   0x08005541   0x00000003   PAD
    0x08005544   0x08005544   0x00000020   Data   RO         3201    Region$$Table       anon$$obj.o


    Execution Region RW_IRAM1 (Exec base: 0x20000000, Load base: 0x08005564, Size: 0x00000ce0, Max: 0x00010000, ABSOLUTE)

    Exec Addr    Load Addr    Size         Type   Attr      Idx    E Section Name        Object

    0x20000000   0x08005564   0x00000090   Data   RW         1109    .data               graphoc_test_components.o
    0x20000090   0x080055f4   0x00000028   Data   RW         1447    .data               oled_test_soft_spi.o
    0x200000b8   0x0800561c   0x00000038   Data   RW         1586    .data               soft_spi_fast_setup.o
    0x200000f0   0x08005654   0x0000000c   Data   RW         1901    .data               stm32f1xx_hal.o
    0x200000fc   0x08005660   0x00000004   Data   RW         2857    .data               system_stm32f1xx_1.o
    0x20000100        -       0x000000a0   Zero   RW         1107    .bss                graphoc_test_components.o
    0x200001a0        -       0x00000480   Zero   RW         1275    .bss                oled_base_driver_ssd1309.o
    0x20000620        -       0x00000030   Zero   RW         1446    .bss                oled_test_soft_spi.o
    0x20000650        -       0x00000030   Zero   RW         1585    .bss                soft_spi_fast_setup.o
    0x20000680        -       0x00000060   Zero   RW         3057    .bss                c_w.l(libspace.o)
    0x200006e0        -       0x00000200   Zero   RW            2    HEAP                startup_stm32f103xe.o
    0x200008e0        -       0x00000400   Zero   RW            1    STACK               startup_stm32f103xe.o


==============================================================================

Image component sizes


      Code (inc. data)   RO Data    RW Data    ZI Data      Debug   Object Name

         0          0        570          0          0       2659   ascii6x8.source.o
         0          0       1520          0          0        668   ascii8x16.source.o
       648         14          0          0          0       5312   ccgraphic_arc.o
       842          0          0          0          0       7314   ccgraphic_circle.o
       116         52          0          0          0     397211   ccgraphic_device_adapter.o
       160          0          0          0          0      10763   ccgraphic_device_oled_adapter.o
      1548         10          0          0          0       4913   ccgraphic_ellipse.o
       286         14          0          0          0       4794   ccgraphic_frame.o
        32          0          0          0          0       2274   ccgraphic_image.o
       412          0          0          0          0       4021   ccgraphic_line.o
      1000         46          0          0          0      17995   ccgraphic_menu.o
        14          0          0          0          0       1514   ccgraphic_point.o
       164          0          0          0          0       3583   ccgraphic_rectangle.o
        82          8          0          0          0       1853   ccgraphic_textconfig.o
       300         34          0          0          0       6759   ccgraphic_textedit.o
       640         22          0          0          0       8642   ccgraphic_textitem.o
       276          0          0          0          0       3534   ccgraphic_triangle.o
       110          0          0          0          0       3343   ccgraphic_utils.o
        52          0          0          0          0       1109   ccgraphicwidget_base.o
         2          0          0          0          0     435347   gpio.o
       524          0          0          0          0       6203   graphic_test_base.o
         4          0          0          0          0        908   graphic_test_device.o
       320        104          0          0          0       1975   graphic_test_widget.o
       816        212         52        144        160       5996   graphoc_test_components.o
       116          0          0          0          0       1532   main.o
       870         54         23          0       1152      14364   oled_base_driver_ssd1309.o
        62          0          0          0          0       3023   oled_test.o
        52         10          0         40         48       1290   oled_test_soft_spi.o
       482         12          0          0          0       5509   soft_spi.o
        68          8          0         56         48       4192   soft_spi_fast_setup.o
        64         26        304          0       1536        832   startup_stm32f103xe.o
       164         28          0         12          0       6677   stm32f1xx_hal.o
       172         14          0          0          0      28390   stm32f1xx_hal_cortex.o
       514         42          0          0          0       2968   stm32f1xx_hal_gpio.o
        60          8          0          0          0        914   stm32f1xx_hal_msp.o
      1176         60         18          0          0       4070   stm32f1xx_hal_rcc.o
        20          0          0          0          0       4058   stm32f1xx_it.o
         2          0         16          4          0       1179   system_stm32f1xx_1.o
       944        424         93          0          0       8691   test_all.o
         0          0        160          0          0        797   test_image.o

    ----------------------------------------------------------------------
     13138       1202       2794        256       2944    1027176   Object Totals
         0          0         32          0          0          0   (incl. Generated)
        24          0          6          0          0          0   (incl. Padding)

    ----------------------------------------------------------------------

      Code (inc. data)   RO Data    RW Data    ZI Data      Debug   Library Member Name

         8          0          0          0          0         68   __main.o
       104          0          0          0          0         84   __printf.o
         0          0          0          0          0          0   __rtentry.o
        12          0          0          0          0          0   __rtentry2.o
         6          0          0          0          0          0   __rtentry4.o
        52          8          0          0          0          0   __scatter.o
        26          0          0          0          0          0   __scatter_copy.o
        28          0          0          0          0          0   __scatter_zi.o
        48          6          0          0          0         96   _printf_char_common.o
         6          0          0          0          0          0   _printf_d.o
       120         16          0          0          0         92   _printf_dec.o
       178          0          0          0          0         88   _printf_intcommon.o
         0          0          0          0          0          0   _printf_percent.o
         4          0          0          0          0          0   _printf_percent_end.o
        22          0          0          0          0        100   _rserrno.o
        16          0          0          0          0         68   _snputc.o
        10          0          0          0          0         68   _sputc.o
        18          0          0          0          0         80   exit.o
         6          0          0          0          0        152   heapauxi.o
         0          0          0          0          0          0   indicate_semi.o
         2          0          0          0          0          0   libinit.o
         2          0          0          0          0          0   libinit2.o
         2          0          0          0          0          0   libshutdown.o
         2          0          0          0          0          0   libshutdown2.o
         8          4          0          0         96         68   libspace.o
        52          4          0          0          0         84   noretval__2snprintf.o
         8          4          0          0          0         68   rt_errno_addr_intlibspace.o
        68          0          0          0          0         68   rt_memclr.o
        78          0          0          0          0         80   rt_memclr_w.o
         2          0          0          0          0          0   rtexit.o
        10          0          0          0          0          0   rtexit2.o
       128          0          0          0          0         68   strcmpv7m.o
        12          4          0          0          0         68   sys_exit.o
        74          0          0          0          0         80   sys_stackheap_outer.o
         2          0          0          0          0         68   use_no_semi.o
        98          4          0          0          0         92   d2f.o
       826         16          0          0          0        348   daddsub_clz.o
        16          4          0          0          0         68   dcheck1.o
        24          0          0          0          0         68   dcmpi.o
       688        140          0          0          0        208   ddiv.o
       120          4          0          0          0         92   deqf.o
        94          4          0          0          0         92   dfix.o
        84          0          0          0          0        136   dflt_clz.o
       120          4          0          0          0         92   dleqf.o
       340         12          0          0          0        104   dmul.o
       156          4          0          0          0         92   dnaninf.o
        12          0          0          0          0         68   dretinf.o
       430          8          0          0          0        168   faddsub_clz.o
        48          0          0          0          0         68   fflt_clz.o
       140          4          0          0          0         84   fnaninf.o
        10          0          0          0          0         68   fretinf.o
       100          0          0          0          0         68   retnan.o
        92          0          0          0          0         68   scalbn.o
        48          0          0          0          0         68   trapv.o
         0          0          0          0          0          0   usenofp.o
       544         70        152          0          0        124   atan.o
       412         38          0          0          0        144   atan2.o
        26          6          0          0          0        204   dunder.o
        40          0          0          0          0         68   fpclassify.o
       170          0          0          0          0         96   poly.o
         0          0          8          0          0          0   qnan.o

    ----------------------------------------------------------------------
      5768        364        160          0         96       4236   Library Totals
        16          0          0          0          0          0   (incl. Padding)

    ----------------------------------------------------------------------

      Code (inc. data)   RO Data    RW Data    ZI Data      Debug   Library Name

      1114         46          0          0         96       1548   c_w.l
      3446        204          0          0          0       2052   fz_ws.l
      1192        114        160          0          0        636   m_ws.l

    ----------------------------------------------------------------------
      5768        364        160          0         96       4236   Library Totals

    ----------------------------------------------------------------------

==============================================================================


      Code (inc. data)   RO Data    RW Data    ZI Data      Debug   

     18906       1566       2954        256       3040    1021372   Grand Totals
     18906       1566       2954        256       3040    1021372   ELF Image Totals
     18906       1566       2954        256          0          0   ROM Totals

==============================================================================

    Total RO  Size (Code + RO Data)                21860 (  21.35kB)
    Total RW  Size (RW Data + ZI Data)              3296 (   3.22kB)
    Total ROM Size (Code + RO Data + RW Data)      22116 (  21.60kB)

==============================================================================

